	.file	"main.cpp"
	.section	.rodata
	.type	_ZStL19piecewise_construct, @object
	.size	_ZStL19piecewise_construct, 1
_ZStL19piecewise_construct:
	.zero	1
	.section	.text._ZnwmPv,"axG",@progbits,_ZnwmPv,comdat
	.weak	_ZnwmPv
	.type	_ZnwmPv, @function
_ZnwmPv:
.LFB429:
	.cfi_startproc
	pushq	%rbp
	.cfi_def_cfa_offset 16
	.cfi_offset 6, -16
	movq	%rsp, %rbp
	.cfi_def_cfa_register 6
	movq	%rdi, -8(%rbp)
	movq	%rsi, -16(%rbp)
	movq	-16(%rbp), %rax
	popq	%rbp
	.cfi_def_cfa 7, 8
	ret
	.cfi_endproc
.LFE429:
	.size	_ZnwmPv, .-_ZnwmPv
	.section	.text._ZdlPvS_,"axG",@progbits,_ZdlPvS_,comdat
	.weak	_ZdlPvS_
	.type	_ZdlPvS_, @function
_ZdlPvS_:
.LFB431:
	.cfi_startproc
	pushq	%rbp
	.cfi_def_cfa_offset 16
	.cfi_offset 6, -16
	movq	%rsp, %rbp
	.cfi_def_cfa_register 6
	movq	%rdi, -8(%rbp)
	movq	%rsi, -16(%rbp)
	nop
	popq	%rbp
	.cfi_def_cfa 7, 8
	ret
	.cfi_endproc
.LFE431:
	.size	_ZdlPvS_, .-_ZdlPvS_
	.local	_ZStL8__ioinit
	.comm	_ZStL8__ioinit,1,1
	.text
	.globl	_Z14smallerThanSixRKNSt7__cxx1112basic_stringIcSt11char_traitsIcESaIcEEE
	.type	_Z14smallerThanSixRKNSt7__cxx1112basic_stringIcSt11char_traitsIcESaIcEEE, @function
_Z14smallerThanSixRKNSt7__cxx1112basic_stringIcSt11char_traitsIcESaIcEEE:
.LFB6630:
	.cfi_startproc
	pushq	%rbp
	.cfi_def_cfa_offset 16
	.cfi_offset 6, -16
	movq	%rsp, %rbp
	.cfi_def_cfa_register 6
	subq	$16, %rsp
	movq	%rdi, -8(%rbp)
	movq	-8(%rbp), %rax
	movq	%rax, %rdi
	call	_ZNKSt7__cxx1112basic_stringIcSt11char_traitsIcESaIcEE4sizeEv
	cmpq	$5, %rax
	setbe	%al
	leave
	.cfi_def_cfa 7, 8
	ret
	.cfi_endproc
.LFE6630:
	.size	_Z14smallerThanSixRKNSt7__cxx1112basic_stringIcSt11char_traitsIcESaIcEEE, .-_Z14smallerThanSixRKNSt7__cxx1112basic_stringIcSt11char_traitsIcESaIcEEE
	.section	.rodata
.LC0:
	.string	"asffas"
.LC1:
	.string	"as"
.LC2:
	.string	"a"
.LC3:
	.string	"asfasfggas"
.LC4:
	.string	"dffafadf"
	.text
	.globl	main
	.type	main, @function
main:
.LFB6631:
	.cfi_startproc
	.cfi_personality 0x3,__gxx_personality_v0
	.cfi_lsda 0x3,.LLSDA6631
	pushq	%rbp
	.cfi_def_cfa_offset 16
	.cfi_offset 6, -16
	movq	%rsp, %rbp
	.cfi_def_cfa_register 6
	pushq	%r13
	pushq	%r12
	pushq	%rbx
	subq	$232, %rsp
	.cfi_offset 13, -24
	.cfi_offset 12, -32
	.cfi_offset 3, -40
	movq	%fs:40, %rax
	movq	%rax, -40(%rbp)
	xorl	%eax, %eax
	leaq	-246(%rbp), %rax
	movq	%rax, %rdi
	call	_ZNSaIcEC1Ev
	leaq	-246(%rbp), %rdx
	leaq	-208(%rbp), %rax
	movl	$.LC0, %esi
	movq	%rax, %rdi
.LEHB0:
	call	_ZNSt7__cxx1112basic_stringIcSt11char_traitsIcESaIcEEC1EPKcRKS3_
.LEHE0:
	leaq	-245(%rbp), %rax
	movq	%rax, %rdi
	call	_ZNSaIcEC1Ev
	leaq	-245(%rbp), %rax
	leaq	-208(%rbp), %rdx
	leaq	32(%rdx), %rcx
	movq	%rax, %rdx
	movl	$.LC1, %esi
	movq	%rcx, %rdi
.LEHB1:
	call	_ZNSt7__cxx1112basic_stringIcSt11char_traitsIcESaIcEEC1EPKcRKS3_
.LEHE1:
	leaq	-244(%rbp), %rax
	movq	%rax, %rdi
	call	_ZNSaIcEC1Ev
	leaq	-244(%rbp), %rax
	leaq	-208(%rbp), %rdx
	leaq	64(%rdx), %rcx
	movq	%rax, %rdx
	movl	$.LC2, %esi
	movq	%rcx, %rdi
.LEHB2:
	call	_ZNSt7__cxx1112basic_stringIcSt11char_traitsIcESaIcEEC1EPKcRKS3_
.LEHE2:
	leaq	-243(%rbp), %rax
	movq	%rax, %rdi
	call	_ZNSaIcEC1Ev
	leaq	-243(%rbp), %rax
	leaq	-208(%rbp), %rdx
	leaq	96(%rdx), %rcx
	movq	%rax, %rdx
	movl	$.LC3, %esi
	movq	%rcx, %rdi
.LEHB3:
	call	_ZNSt7__cxx1112basic_stringIcSt11char_traitsIcESaIcEEC1EPKcRKS3_
.LEHE3:
	leaq	-242(%rbp), %rax
	movq	%rax, %rdi
	call	_ZNSaIcEC1Ev
	leaq	-242(%rbp), %rax
	leaq	-208(%rbp), %rdx
	leaq	128(%rdx), %rcx
	movq	%rax, %rdx
	movl	$.LC4, %esi
	movq	%rcx, %rdi
.LEHB4:
	call	_ZNSt7__cxx1112basic_stringIcSt11char_traitsIcESaIcEEC1EPKcRKS3_
.LEHE4:
	leaq	-208(%rbp), %rax
	movq	%rax, %r12
	movl	$5, %r13d
	leaq	-241(%rbp), %rax
	movq	%rax, %rdi
	call	_ZNSaINSt7__cxx1112basic_stringIcSt11char_traitsIcESaIcEEEEC1Ev
	leaq	-241(%rbp), %rdx
	movq	%r12, %rsi
	movq	%r13, %rdi
	movq	%r12, %rcx
	movq	%r13, %rbx
	movq	%rbx, %rdi
	leaq	-240(%rbp), %rax
	movq	%rdx, %rcx
	movq	%rdi, %rdx
	movq	%rax, %rdi
.LEHB5:
	call	_ZNSt6vectorINSt7__cxx1112basic_stringIcSt11char_traitsIcESaIcEEESaIS5_EEC1ESt16initializer_listIS5_ERKS6_
.LEHE5:
	leaq	-241(%rbp), %rax
	movq	%rax, %rdi
	call	_ZNSaINSt7__cxx1112basic_stringIcSt11char_traitsIcESaIcEEEED1Ev
	leaq	-208(%rbp), %rbx
	addq	$160, %rbx
.L8:
	leaq	-208(%rbp), %rax
	cmpq	%rax, %rbx
	je	.L7
	subq	$32, %rbx
	movq	%rbx, %rdi
	call	_ZNSt7__cxx1112basic_stringIcSt11char_traitsIcESaIcEED1Ev
	jmp	.L8
.L7:
	leaq	-242(%rbp), %rax
	movq	%rax, %rdi
	call	_ZNSaIcED1Ev
	leaq	-243(%rbp), %rax
	movq	%rax, %rdi
	call	_ZNSaIcED1Ev
	leaq	-244(%rbp), %rax
	movq	%rax, %rdi
	call	_ZNSaIcED1Ev
	leaq	-245(%rbp), %rax
	movq	%rax, %rdi
	call	_ZNSaIcED1Ev
	leaq	-246(%rbp), %rax
	movq	%rax, %rdi
	call	_ZNSaIcED1Ev
	leaq	-240(%rbp), %rax
	movq	%rax, %rdi
	call	_ZNKSt6vectorINSt7__cxx1112basic_stringIcSt11char_traitsIcESaIcEEESaIS5_EE4cendEv
	movq	%rax, %rbx
	leaq	-240(%rbp), %rax
	movq	%rax, %rdi
	call	_ZNKSt6vectorINSt7__cxx1112basic_stringIcSt11char_traitsIcESaIcEEESaIS5_EE6cbeginEv
	movl	$_Z14smallerThanSixRKNSt7__cxx1112basic_stringIcSt11char_traitsIcESaIcEEE, %edx
	movq	%rbx, %rsi
	movq	%rax, %rdi
.LEHB6:
	call	_ZSt8count_ifIN9__gnu_cxx17__normal_iteratorIPKNSt7__cxx1112basic_stringIcSt11char_traitsIcESaIcEEESt6vectorIS7_SaIS7_EEEEPFbRS8_EENSt15iterator_traitsIT_E15difference_typeESI_SI_T0_
	movq	%rax, %rsi
	movl	$_ZSt4cout, %edi
	call	_ZNSolsEl
	movl	$_ZSt4endlIcSt11char_traitsIcEERSt13basic_ostreamIT_T0_ES6_, %esi
	movq	%rax, %rdi
	call	_ZNSolsEPFRSoS_E
.LEHE6:
	leaq	-240(%rbp), %rax
	movq	%rax, %rdi
	call	_ZNSt6vectorINSt7__cxx1112basic_stringIcSt11char_traitsIcESaIcEEESaIS5_EED1Ev
	movl	$0, %eax
	movq	-40(%rbp), %rcx
	xorq	%fs:40, %rcx
	je	.L19
	jmp	.L27
.L25:
	movq	%rax, %rbx
	leaq	-241(%rbp), %rax
	movq	%rax, %rdi
	call	_ZNSaINSt7__cxx1112basic_stringIcSt11char_traitsIcESaIcEEEED1Ev
	movq	%rbx, %r12
	leaq	-208(%rbp), %rbx
	addq	$160, %rbx
.L12:
	leaq	-208(%rbp), %rax
	cmpq	%rax, %rbx
	je	.L11
	subq	$32, %rbx
	movq	%rbx, %rdi
	call	_ZNSt7__cxx1112basic_stringIcSt11char_traitsIcESaIcEED1Ev
	jmp	.L12
.L11:
	movq	%r12, %rbx
	jmp	.L13
.L24:
	movq	%rax, %rbx
.L13:
	leaq	-242(%rbp), %rax
	movq	%rax, %rdi
	call	_ZNSaIcED1Ev
	jmp	.L14
.L23:
	movq	%rax, %rbx
.L14:
	leaq	-243(%rbp), %rax
	movq	%rax, %rdi
	call	_ZNSaIcED1Ev
	jmp	.L15
.L22:
	movq	%rax, %rbx
.L15:
	leaq	-244(%rbp), %rax
	movq	%rax, %rdi
	call	_ZNSaIcED1Ev
	jmp	.L16
.L21:
	movq	%rax, %rbx
.L16:
	leaq	-245(%rbp), %rax
	movq	%rax, %rdi
	call	_ZNSaIcED1Ev
	jmp	.L17
.L20:
	movq	%rax, %rbx
.L17:
	leaq	-246(%rbp), %rax
	movq	%rax, %rdi
	call	_ZNSaIcED1Ev
	movq	%rbx, %rax
	movq	%rax, %rdi
.LEHB7:
	call	_Unwind_Resume
.L26:
	movq	%rax, %rbx
	leaq	-240(%rbp), %rax
	movq	%rax, %rdi
	call	_ZNSt6vectorINSt7__cxx1112basic_stringIcSt11char_traitsIcESaIcEEESaIS5_EED1Ev
	movq	%rbx, %rax
	movq	%rax, %rdi
	call	_Unwind_Resume
.LEHE7:
.L27:
	call	__stack_chk_fail
.L19:
	addq	$232, %rsp
	popq	%rbx
	popq	%r12
	popq	%r13
	popq	%rbp
	.cfi_def_cfa 7, 8
	ret
	.cfi_endproc
.LFE6631:
	.globl	__gxx_personality_v0
	.section	.gcc_except_table,"a",@progbits
.LLSDA6631:
	.byte	0xff
	.byte	0xff
	.byte	0x1
	.uleb128 .LLSDACSE6631-.LLSDACSB6631
.LLSDACSB6631:
	.uleb128 .LEHB0-.LFB6631
	.uleb128 .LEHE0-.LEHB0
	.uleb128 .L20-.LFB6631
	.uleb128 0
	.uleb128 .LEHB1-.LFB6631
	.uleb128 .LEHE1-.LEHB1
	.uleb128 .L21-.LFB6631
	.uleb128 0
	.uleb128 .LEHB2-.LFB6631
	.uleb128 .LEHE2-.LEHB2
	.uleb128 .L22-.LFB6631
	.uleb128 0
	.uleb128 .LEHB3-.LFB6631
	.uleb128 .LEHE3-.LEHB3
	.uleb128 .L23-.LFB6631
	.uleb128 0
	.uleb128 .LEHB4-.LFB6631
	.uleb128 .LEHE4-.LEHB4
	.uleb128 .L24-.LFB6631
	.uleb128 0
	.uleb128 .LEHB5-.LFB6631
	.uleb128 .LEHE5-.LEHB5
	.uleb128 .L25-.LFB6631
	.uleb128 0
	.uleb128 .LEHB6-.LFB6631
	.uleb128 .LEHE6-.LEHB6
	.uleb128 .L26-.LFB6631
	.uleb128 0
	.uleb128 .LEHB7-.LFB6631
	.uleb128 .LEHE7-.LEHB7
	.uleb128 0
	.uleb128 0
.LLSDACSE6631:
	.text
	.size	main, .-main
	.section	.text._ZNSaINSt7__cxx1112basic_stringIcSt11char_traitsIcESaIcEEEEC2Ev,"axG",@progbits,_ZNSaINSt7__cxx1112basic_stringIcSt11char_traitsIcESaIcEEEEC5Ev,comdat
	.align 2
	.weak	_ZNSaINSt7__cxx1112basic_stringIcSt11char_traitsIcESaIcEEEEC2Ev
	.type	_ZNSaINSt7__cxx1112basic_stringIcSt11char_traitsIcESaIcEEEEC2Ev, @function
_ZNSaINSt7__cxx1112basic_stringIcSt11char_traitsIcESaIcEEEEC2Ev:
.LFB6708:
	.cfi_startproc
	pushq	%rbp
	.cfi_def_cfa_offset 16
	.cfi_offset 6, -16
	movq	%rsp, %rbp
	.cfi_def_cfa_register 6
	subq	$16, %rsp
	movq	%rdi, -8(%rbp)
	movq	-8(%rbp), %rax
	movq	%rax, %rdi
	call	_ZN9__gnu_cxx13new_allocatorINSt7__cxx1112basic_stringIcSt11char_traitsIcESaIcEEEEC2Ev
	nop
	leave
	.cfi_def_cfa 7, 8
	ret
	.cfi_endproc
.LFE6708:
	.size	_ZNSaINSt7__cxx1112basic_stringIcSt11char_traitsIcESaIcEEEEC2Ev, .-_ZNSaINSt7__cxx1112basic_stringIcSt11char_traitsIcESaIcEEEEC2Ev
	.weak	_ZNSaINSt7__cxx1112basic_stringIcSt11char_traitsIcESaIcEEEEC1Ev
	.set	_ZNSaINSt7__cxx1112basic_stringIcSt11char_traitsIcESaIcEEEEC1Ev,_ZNSaINSt7__cxx1112basic_stringIcSt11char_traitsIcESaIcEEEEC2Ev
	.section	.text._ZNSaINSt7__cxx1112basic_stringIcSt11char_traitsIcESaIcEEEED2Ev,"axG",@progbits,_ZNSaINSt7__cxx1112basic_stringIcSt11char_traitsIcESaIcEEEED5Ev,comdat
	.align 2
	.weak	_ZNSaINSt7__cxx1112basic_stringIcSt11char_traitsIcESaIcEEEED2Ev
	.type	_ZNSaINSt7__cxx1112basic_stringIcSt11char_traitsIcESaIcEEEED2Ev, @function
_ZNSaINSt7__cxx1112basic_stringIcSt11char_traitsIcESaIcEEEED2Ev:
.LFB6711:
	.cfi_startproc
	pushq	%rbp
	.cfi_def_cfa_offset 16
	.cfi_offset 6, -16
	movq	%rsp, %rbp
	.cfi_def_cfa_register 6
	subq	$16, %rsp
	movq	%rdi, -8(%rbp)
	movq	-8(%rbp), %rax
	movq	%rax, %rdi
	call	_ZN9__gnu_cxx13new_allocatorINSt7__cxx1112basic_stringIcSt11char_traitsIcESaIcEEEED2Ev
	nop
	leave
	.cfi_def_cfa 7, 8
	ret
	.cfi_endproc
.LFE6711:
	.size	_ZNSaINSt7__cxx1112basic_stringIcSt11char_traitsIcESaIcEEEED2Ev, .-_ZNSaINSt7__cxx1112basic_stringIcSt11char_traitsIcESaIcEEEED2Ev
	.weak	_ZNSaINSt7__cxx1112basic_stringIcSt11char_traitsIcESaIcEEEED1Ev
	.set	_ZNSaINSt7__cxx1112basic_stringIcSt11char_traitsIcESaIcEEEED1Ev,_ZNSaINSt7__cxx1112basic_stringIcSt11char_traitsIcESaIcEEEED2Ev
	.section	.text._ZNKSt16initializer_listINSt7__cxx1112basic_stringIcSt11char_traitsIcESaIcEEEE5beginEv,"axG",@progbits,_ZNKSt16initializer_listINSt7__cxx1112basic_stringIcSt11char_traitsIcESaIcEEEE5beginEv,comdat
	.align 2
	.weak	_ZNKSt16initializer_listINSt7__cxx1112basic_stringIcSt11char_traitsIcESaIcEEEE5beginEv
	.type	_ZNKSt16initializer_listINSt7__cxx1112basic_stringIcSt11char_traitsIcESaIcEEEE5beginEv, @function
_ZNKSt16initializer_listINSt7__cxx1112basic_stringIcSt11char_traitsIcESaIcEEEE5beginEv:
.LFB6714:
	.cfi_startproc
	pushq	%rbp
	.cfi_def_cfa_offset 16
	.cfi_offset 6, -16
	movq	%rsp, %rbp
	.cfi_def_cfa_register 6
	movq	%rdi, -8(%rbp)
	movq	-8(%rbp), %rax
	movq	(%rax), %rax
	popq	%rbp
	.cfi_def_cfa 7, 8
	ret
	.cfi_endproc
.LFE6714:
	.size	_ZNKSt16initializer_listINSt7__cxx1112basic_stringIcSt11char_traitsIcESaIcEEEE5beginEv, .-_ZNKSt16initializer_listINSt7__cxx1112basic_stringIcSt11char_traitsIcESaIcEEEE5beginEv
	.section	.text._ZNKSt16initializer_listINSt7__cxx1112basic_stringIcSt11char_traitsIcESaIcEEEE4sizeEv,"axG",@progbits,_ZNKSt16initializer_listINSt7__cxx1112basic_stringIcSt11char_traitsIcESaIcEEEE4sizeEv,comdat
	.align 2
	.weak	_ZNKSt16initializer_listINSt7__cxx1112basic_stringIcSt11char_traitsIcESaIcEEEE4sizeEv
	.type	_ZNKSt16initializer_listINSt7__cxx1112basic_stringIcSt11char_traitsIcESaIcEEEE4sizeEv, @function
_ZNKSt16initializer_listINSt7__cxx1112basic_stringIcSt11char_traitsIcESaIcEEEE4sizeEv:
.LFB6716:
	.cfi_startproc
	pushq	%rbp
	.cfi_def_cfa_offset 16
	.cfi_offset 6, -16
	movq	%rsp, %rbp
	.cfi_def_cfa_register 6
	movq	%rdi, -8(%rbp)
	movq	-8(%rbp), %rax
	movq	8(%rax), %rax
	popq	%rbp
	.cfi_def_cfa 7, 8
	ret
	.cfi_endproc
.LFE6716:
	.size	_ZNKSt16initializer_listINSt7__cxx1112basic_stringIcSt11char_traitsIcESaIcEEEE4sizeEv, .-_ZNKSt16initializer_listINSt7__cxx1112basic_stringIcSt11char_traitsIcESaIcEEEE4sizeEv
	.section	.text._ZNKSt16initializer_listINSt7__cxx1112basic_stringIcSt11char_traitsIcESaIcEEEE3endEv,"axG",@progbits,_ZNKSt16initializer_listINSt7__cxx1112basic_stringIcSt11char_traitsIcESaIcEEEE3endEv,comdat
	.align 2
	.weak	_ZNKSt16initializer_listINSt7__cxx1112basic_stringIcSt11char_traitsIcESaIcEEEE3endEv
	.type	_ZNKSt16initializer_listINSt7__cxx1112basic_stringIcSt11char_traitsIcESaIcEEEE3endEv, @function
_ZNKSt16initializer_listINSt7__cxx1112basic_stringIcSt11char_traitsIcESaIcEEEE3endEv:
.LFB6715:
	.cfi_startproc
	pushq	%rbp
	.cfi_def_cfa_offset 16
	.cfi_offset 6, -16
	movq	%rsp, %rbp
	.cfi_def_cfa_register 6
	pushq	%rbx
	subq	$24, %rsp
	.cfi_offset 3, -24
	movq	%rdi, -24(%rbp)
	movq	-24(%rbp), %rax
	movq	%rax, %rdi
	call	_ZNKSt16initializer_listINSt7__cxx1112basic_stringIcSt11char_traitsIcESaIcEEEE5beginEv
	movq	%rax, %rbx
	movq	-24(%rbp), %rax
	movq	%rax, %rdi
	call	_ZNKSt16initializer_listINSt7__cxx1112basic_stringIcSt11char_traitsIcESaIcEEEE4sizeEv
	salq	$5, %rax
	addq	%rbx, %rax
	addq	$24, %rsp
	popq	%rbx
	popq	%rbp
	.cfi_def_cfa 7, 8
	ret
	.cfi_endproc
.LFE6715:
	.size	_ZNKSt16initializer_listINSt7__cxx1112basic_stringIcSt11char_traitsIcESaIcEEEE3endEv, .-_ZNKSt16initializer_listINSt7__cxx1112basic_stringIcSt11char_traitsIcESaIcEEEE3endEv
	.section	.text._ZNSt6vectorINSt7__cxx1112basic_stringIcSt11char_traitsIcESaIcEEESaIS5_EEC2ESt16initializer_listIS5_ERKS6_,"axG",@progbits,_ZNSt6vectorINSt7__cxx1112basic_stringIcSt11char_traitsIcESaIcEEESaIS5_EEC5ESt16initializer_listIS5_ERKS6_,comdat
	.align 2
	.weak	_ZNSt6vectorINSt7__cxx1112basic_stringIcSt11char_traitsIcESaIcEEESaIS5_EEC2ESt16initializer_listIS5_ERKS6_
	.type	_ZNSt6vectorINSt7__cxx1112basic_stringIcSt11char_traitsIcESaIcEEESaIS5_EEC2ESt16initializer_listIS5_ERKS6_, @function
_ZNSt6vectorINSt7__cxx1112basic_stringIcSt11char_traitsIcESaIcEEESaIS5_EEC2ESt16initializer_listIS5_ERKS6_:
.LFB6717:
	.cfi_startproc
	.cfi_personality 0x3,__gxx_personality_v0
	.cfi_lsda 0x3,.LLSDA6717
	pushq	%rbp
	.cfi_def_cfa_offset 16
	.cfi_offset 6, -16
	movq	%rsp, %rbp
	.cfi_def_cfa_register 6
	pushq	%r12
	pushq	%rbx
	subq	$48, %rsp
	.cfi_offset 12, -24
	.cfi_offset 3, -32
	movq	%rdi, -40(%rbp)
	movq	%rsi, %rax
	movq	%rdx, %rsi
	movq	%rsi, %rdx
	movq	%rax, -64(%rbp)
	movq	%rdx, -56(%rbp)
	movq	%rcx, -48(%rbp)
	movq	%fs:40, %rax
	movq	%rax, -24(%rbp)
	xorl	%eax, %eax
	movq	-40(%rbp), %rax
	movq	-48(%rbp), %rdx
	movq	%rdx, %rsi
	movq	%rax, %rdi
	call	_ZNSt12_Vector_baseINSt7__cxx1112basic_stringIcSt11char_traitsIcESaIcEEESaIS5_EEC2ERKS6_
	leaq	-64(%rbp), %rax
	movq	%rax, %rdi
	call	_ZNKSt16initializer_listINSt7__cxx1112basic_stringIcSt11char_traitsIcESaIcEEEE3endEv
	movq	%rax, %rbx
	leaq	-64(%rbp), %rax
	movq	%rax, %rdi
	call	_ZNKSt16initializer_listINSt7__cxx1112basic_stringIcSt11char_traitsIcESaIcEEEE5beginEv
	movq	%rax, %rcx
	movq	-40(%rbp), %rax
	subq	$8, %rsp
	pushq	%r12
	movq	%rbx, %rdx
	movq	%rcx, %rsi
	movq	%rax, %rdi
.LEHB8:
	.cfi_escape 0x2e,0x10
	call	_ZNSt6vectorINSt7__cxx1112basic_stringIcSt11char_traitsIcESaIcEEESaIS5_EE19_M_range_initializeIPKS5_EEvT_SB_St20forward_iterator_tag
.LEHE8:
	addq	$16, %rsp
	nop
	movq	-24(%rbp), %rax
	xorq	%fs:40, %rax
	je	.L38
	jmp	.L40
.L39:
	movq	%rax, %rbx
	movq	-40(%rbp), %rax
	movq	%rax, %rdi
	call	_ZNSt12_Vector_baseINSt7__cxx1112basic_stringIcSt11char_traitsIcESaIcEEESaIS5_EED2Ev
	movq	%rbx, %rax
	movq	%rax, %rdi
.LEHB9:
	call	_Unwind_Resume
.LEHE9:
.L40:
	call	__stack_chk_fail
.L38:
	leaq	-16(%rbp), %rsp
	popq	%rbx
	popq	%r12
	popq	%rbp
	.cfi_def_cfa 7, 8
	ret
	.cfi_endproc
.LFE6717:
	.section	.gcc_except_table
.LLSDA6717:
	.byte	0xff
	.byte	0xff
	.byte	0x1
	.uleb128 .LLSDACSE6717-.LLSDACSB6717
.LLSDACSB6717:
	.uleb128 .LEHB8-.LFB6717
	.uleb128 .LEHE8-.LEHB8
	.uleb128 .L39-.LFB6717
	.uleb128 0
	.uleb128 .LEHB9-.LFB6717
	.uleb128 .LEHE9-.LEHB9
	.uleb128 0
	.uleb128 0
.LLSDACSE6717:
	.section	.text._ZNSt6vectorINSt7__cxx1112basic_stringIcSt11char_traitsIcESaIcEEESaIS5_EEC2ESt16initializer_listIS5_ERKS6_,"axG",@progbits,_ZNSt6vectorINSt7__cxx1112basic_stringIcSt11char_traitsIcESaIcEEESaIS5_EEC5ESt16initializer_listIS5_ERKS6_,comdat
	.size	_ZNSt6vectorINSt7__cxx1112basic_stringIcSt11char_traitsIcESaIcEEESaIS5_EEC2ESt16initializer_listIS5_ERKS6_, .-_ZNSt6vectorINSt7__cxx1112basic_stringIcSt11char_traitsIcESaIcEEESaIS5_EEC2ESt16initializer_listIS5_ERKS6_
	.weak	_ZNSt6vectorINSt7__cxx1112basic_stringIcSt11char_traitsIcESaIcEEESaIS5_EEC1ESt16initializer_listIS5_ERKS6_
	.set	_ZNSt6vectorINSt7__cxx1112basic_stringIcSt11char_traitsIcESaIcEEESaIS5_EEC1ESt16initializer_listIS5_ERKS6_,_ZNSt6vectorINSt7__cxx1112basic_stringIcSt11char_traitsIcESaIcEEESaIS5_EEC2ESt16initializer_listIS5_ERKS6_
	.section	.text._ZNSt6vectorINSt7__cxx1112basic_stringIcSt11char_traitsIcESaIcEEESaIS5_EED2Ev,"axG",@progbits,_ZNSt6vectorINSt7__cxx1112basic_stringIcSt11char_traitsIcESaIcEEESaIS5_EED5Ev,comdat
	.align 2
	.weak	_ZNSt6vectorINSt7__cxx1112basic_stringIcSt11char_traitsIcESaIcEEESaIS5_EED2Ev
	.type	_ZNSt6vectorINSt7__cxx1112basic_stringIcSt11char_traitsIcESaIcEEESaIS5_EED2Ev, @function
_ZNSt6vectorINSt7__cxx1112basic_stringIcSt11char_traitsIcESaIcEEESaIS5_EED2Ev:
.LFB6720:
	.cfi_startproc
	.cfi_personality 0x3,__gxx_personality_v0
	.cfi_lsda 0x3,.LLSDA6720
	pushq	%rbp
	.cfi_def_cfa_offset 16
	.cfi_offset 6, -16
	movq	%rsp, %rbp
	.cfi_def_cfa_register 6
	subq	$16, %rsp
	movq	%rdi, -8(%rbp)
	movq	-8(%rbp), %rax
	movq	%rax, %rdi
	call	_ZNSt12_Vector_baseINSt7__cxx1112basic_stringIcSt11char_traitsIcESaIcEEESaIS5_EE19_M_get_Tp_allocatorEv
	movq	%rax, %rdx
	movq	-8(%rbp), %rax
	movq	8(%rax), %rcx
	movq	-8(%rbp), %rax
	movq	(%rax), %rax
	movq	%rcx, %rsi
	movq	%rax, %rdi
	call	_ZSt8_DestroyIPNSt7__cxx1112basic_stringIcSt11char_traitsIcESaIcEEES5_EvT_S7_RSaIT0_E
	movq	-8(%rbp), %rax
	movq	%rax, %rdi
	call	_ZNSt12_Vector_baseINSt7__cxx1112basic_stringIcSt11char_traitsIcESaIcEEESaIS5_EED2Ev
	nop
	leave
	.cfi_def_cfa 7, 8
	ret
	.cfi_endproc
.LFE6720:
	.section	.gcc_except_table
.LLSDA6720:
	.byte	0xff
	.byte	0xff
	.byte	0x1
	.uleb128 .LLSDACSE6720-.LLSDACSB6720
.LLSDACSB6720:
.LLSDACSE6720:
	.section	.text._ZNSt6vectorINSt7__cxx1112basic_stringIcSt11char_traitsIcESaIcEEESaIS5_EED2Ev,"axG",@progbits,_ZNSt6vectorINSt7__cxx1112basic_stringIcSt11char_traitsIcESaIcEEESaIS5_EED5Ev,comdat
	.size	_ZNSt6vectorINSt7__cxx1112basic_stringIcSt11char_traitsIcESaIcEEESaIS5_EED2Ev, .-_ZNSt6vectorINSt7__cxx1112basic_stringIcSt11char_traitsIcESaIcEEESaIS5_EED2Ev
	.weak	_ZNSt6vectorINSt7__cxx1112basic_stringIcSt11char_traitsIcESaIcEEESaIS5_EED1Ev
	.set	_ZNSt6vectorINSt7__cxx1112basic_stringIcSt11char_traitsIcESaIcEEESaIS5_EED1Ev,_ZNSt6vectorINSt7__cxx1112basic_stringIcSt11char_traitsIcESaIcEEESaIS5_EED2Ev
	.section	.text._ZNKSt6vectorINSt7__cxx1112basic_stringIcSt11char_traitsIcESaIcEEESaIS5_EE6cbeginEv,"axG",@progbits,_ZNKSt6vectorINSt7__cxx1112basic_stringIcSt11char_traitsIcESaIcEEESaIS5_EE6cbeginEv,comdat
	.align 2
	.weak	_ZNKSt6vectorINSt7__cxx1112basic_stringIcSt11char_traitsIcESaIcEEESaIS5_EE6cbeginEv
	.type	_ZNKSt6vectorINSt7__cxx1112basic_stringIcSt11char_traitsIcESaIcEEESaIS5_EE6cbeginEv, @function
_ZNKSt6vectorINSt7__cxx1112basic_stringIcSt11char_traitsIcESaIcEEESaIS5_EE6cbeginEv:
.LFB6722:
	.cfi_startproc
	pushq	%rbp
	.cfi_def_cfa_offset 16
	.cfi_offset 6, -16
	movq	%rsp, %rbp
	.cfi_def_cfa_register 6
	subq	$48, %rsp
	movq	%rdi, -40(%rbp)
	movq	%fs:40, %rax
	movq	%rax, -8(%rbp)
	xorl	%eax, %eax
	movq	-40(%rbp), %rax
	movq	(%rax), %rax
	movq	%rax, -16(%rbp)
	leaq	-16(%rbp), %rdx
	leaq	-32(%rbp), %rax
	movq	%rdx, %rsi
	movq	%rax, %rdi
	call	_ZN9__gnu_cxx17__normal_iteratorIPKNSt7__cxx1112basic_stringIcSt11char_traitsIcESaIcEEESt6vectorIS6_SaIS6_EEEC1ERKS8_
	movq	-32(%rbp), %rax
	movq	-8(%rbp), %rcx
	xorq	%fs:40, %rcx
	je	.L44
	call	__stack_chk_fail
.L44:
	leave
	.cfi_def_cfa 7, 8
	ret
	.cfi_endproc
.LFE6722:
	.size	_ZNKSt6vectorINSt7__cxx1112basic_stringIcSt11char_traitsIcESaIcEEESaIS5_EE6cbeginEv, .-_ZNKSt6vectorINSt7__cxx1112basic_stringIcSt11char_traitsIcESaIcEEESaIS5_EE6cbeginEv
	.section	.text._ZNKSt6vectorINSt7__cxx1112basic_stringIcSt11char_traitsIcESaIcEEESaIS5_EE4cendEv,"axG",@progbits,_ZNKSt6vectorINSt7__cxx1112basic_stringIcSt11char_traitsIcESaIcEEESaIS5_EE4cendEv,comdat
	.align 2
	.weak	_ZNKSt6vectorINSt7__cxx1112basic_stringIcSt11char_traitsIcESaIcEEESaIS5_EE4cendEv
	.type	_ZNKSt6vectorINSt7__cxx1112basic_stringIcSt11char_traitsIcESaIcEEESaIS5_EE4cendEv, @function
_ZNKSt6vectorINSt7__cxx1112basic_stringIcSt11char_traitsIcESaIcEEESaIS5_EE4cendEv:
.LFB6723:
	.cfi_startproc
	pushq	%rbp
	.cfi_def_cfa_offset 16
	.cfi_offset 6, -16
	movq	%rsp, %rbp
	.cfi_def_cfa_register 6
	subq	$48, %rsp
	movq	%rdi, -40(%rbp)
	movq	%fs:40, %rax
	movq	%rax, -8(%rbp)
	xorl	%eax, %eax
	movq	-40(%rbp), %rax
	movq	8(%rax), %rax
	movq	%rax, -16(%rbp)
	leaq	-16(%rbp), %rdx
	leaq	-32(%rbp), %rax
	movq	%rdx, %rsi
	movq	%rax, %rdi
	call	_ZN9__gnu_cxx17__normal_iteratorIPKNSt7__cxx1112basic_stringIcSt11char_traitsIcESaIcEEESt6vectorIS6_SaIS6_EEEC1ERKS8_
	movq	-32(%rbp), %rax
	movq	-8(%rbp), %rcx
	xorq	%fs:40, %rcx
	je	.L47
	call	__stack_chk_fail
.L47:
	leave
	.cfi_def_cfa 7, 8
	ret
	.cfi_endproc
.LFE6723:
	.size	_ZNKSt6vectorINSt7__cxx1112basic_stringIcSt11char_traitsIcESaIcEEESaIS5_EE4cendEv, .-_ZNKSt6vectorINSt7__cxx1112basic_stringIcSt11char_traitsIcESaIcEEESaIS5_EE4cendEv
	.section	.text._ZSt8count_ifIN9__gnu_cxx17__normal_iteratorIPKNSt7__cxx1112basic_stringIcSt11char_traitsIcESaIcEEESt6vectorIS7_SaIS7_EEEEPFbRS8_EENSt15iterator_traitsIT_E15difference_typeESI_SI_T0_,"axG",@progbits,_ZSt8count_ifIN9__gnu_cxx17__normal_iteratorIPKNSt7__cxx1112basic_stringIcSt11char_traitsIcESaIcEEESt6vectorIS7_SaIS7_EEEEPFbRS8_EENSt15iterator_traitsIT_E15difference_typeESI_SI_T0_,comdat
	.weak	_ZSt8count_ifIN9__gnu_cxx17__normal_iteratorIPKNSt7__cxx1112basic_stringIcSt11char_traitsIcESaIcEEESt6vectorIS7_SaIS7_EEEEPFbRS8_EENSt15iterator_traitsIT_E15difference_typeESI_SI_T0_
	.type	_ZSt8count_ifIN9__gnu_cxx17__normal_iteratorIPKNSt7__cxx1112basic_stringIcSt11char_traitsIcESaIcEEESt6vectorIS7_SaIS7_EEEEPFbRS8_EENSt15iterator_traitsIT_E15difference_typeESI_SI_T0_, @function
_ZSt8count_ifIN9__gnu_cxx17__normal_iteratorIPKNSt7__cxx1112basic_stringIcSt11char_traitsIcESaIcEEESt6vectorIS7_SaIS7_EEEEPFbRS8_EENSt15iterator_traitsIT_E15difference_typeESI_SI_T0_:
.LFB6724:
	.cfi_startproc
	pushq	%rbp
	.cfi_def_cfa_offset 16
	.cfi_offset 6, -16
	movq	%rsp, %rbp
	.cfi_def_cfa_register 6
	subq	$32, %rsp
	movq	%rdi, -16(%rbp)
	movq	%rsi, -32(%rbp)
	movq	%rdx, -24(%rbp)
	movq	-24(%rbp), %rax
	movq	%rax, %rdi
	call	_ZN9__gnu_cxx5__ops11__pred_iterIPFbRKNSt7__cxx1112basic_stringIcSt11char_traitsIcESaIcEEEEEENS0_10_Iter_predIT_EESD_
	movq	%rax, %rdx
	movq	-32(%rbp), %rcx
	movq	-16(%rbp), %rax
	movq	%rcx, %rsi
	movq	%rax, %rdi
	call	_ZSt10__count_ifIN9__gnu_cxx17__normal_iteratorIPKNSt7__cxx1112basic_stringIcSt11char_traitsIcESaIcEEESt6vectorIS7_SaIS7_EEEENS0_5__ops10_Iter_predIPFbRS8_EEEENSt15iterator_traitsIT_E15difference_typeESL_SL_T0_
	leave
	.cfi_def_cfa 7, 8
	ret
	.cfi_endproc
.LFE6724:
	.size	_ZSt8count_ifIN9__gnu_cxx17__normal_iteratorIPKNSt7__cxx1112basic_stringIcSt11char_traitsIcESaIcEEESt6vectorIS7_SaIS7_EEEEPFbRS8_EENSt15iterator_traitsIT_E15difference_typeESI_SI_T0_, .-_ZSt8count_ifIN9__gnu_cxx17__normal_iteratorIPKNSt7__cxx1112basic_stringIcSt11char_traitsIcESaIcEEESt6vectorIS7_SaIS7_EEEEPFbRS8_EENSt15iterator_traitsIT_E15difference_typeESI_SI_T0_
	.section	.text._ZN9__gnu_cxx13new_allocatorINSt7__cxx1112basic_stringIcSt11char_traitsIcESaIcEEEEC2Ev,"axG",@progbits,_ZN9__gnu_cxx13new_allocatorINSt7__cxx1112basic_stringIcSt11char_traitsIcESaIcEEEEC5Ev,comdat
	.align 2
	.weak	_ZN9__gnu_cxx13new_allocatorINSt7__cxx1112basic_stringIcSt11char_traitsIcESaIcEEEEC2Ev
	.type	_ZN9__gnu_cxx13new_allocatorINSt7__cxx1112basic_stringIcSt11char_traitsIcESaIcEEEEC2Ev, @function
_ZN9__gnu_cxx13new_allocatorINSt7__cxx1112basic_stringIcSt11char_traitsIcESaIcEEEEC2Ev:
.LFB6795:
	.cfi_startproc
	pushq	%rbp
	.cfi_def_cfa_offset 16
	.cfi_offset 6, -16
	movq	%rsp, %rbp
	.cfi_def_cfa_register 6
	movq	%rdi, -8(%rbp)
	nop
	popq	%rbp
	.cfi_def_cfa 7, 8
	ret
	.cfi_endproc
.LFE6795:
	.size	_ZN9__gnu_cxx13new_allocatorINSt7__cxx1112basic_stringIcSt11char_traitsIcESaIcEEEEC2Ev, .-_ZN9__gnu_cxx13new_allocatorINSt7__cxx1112basic_stringIcSt11char_traitsIcESaIcEEEEC2Ev
	.weak	_ZN9__gnu_cxx13new_allocatorINSt7__cxx1112basic_stringIcSt11char_traitsIcESaIcEEEEC1Ev
	.set	_ZN9__gnu_cxx13new_allocatorINSt7__cxx1112basic_stringIcSt11char_traitsIcESaIcEEEEC1Ev,_ZN9__gnu_cxx13new_allocatorINSt7__cxx1112basic_stringIcSt11char_traitsIcESaIcEEEEC2Ev
	.section	.text._ZN9__gnu_cxx13new_allocatorINSt7__cxx1112basic_stringIcSt11char_traitsIcESaIcEEEED2Ev,"axG",@progbits,_ZN9__gnu_cxx13new_allocatorINSt7__cxx1112basic_stringIcSt11char_traitsIcESaIcEEEED5Ev,comdat
	.align 2
	.weak	_ZN9__gnu_cxx13new_allocatorINSt7__cxx1112basic_stringIcSt11char_traitsIcESaIcEEEED2Ev
	.type	_ZN9__gnu_cxx13new_allocatorINSt7__cxx1112basic_stringIcSt11char_traitsIcESaIcEEEED2Ev, @function
_ZN9__gnu_cxx13new_allocatorINSt7__cxx1112basic_stringIcSt11char_traitsIcESaIcEEEED2Ev:
.LFB6798:
	.cfi_startproc
	pushq	%rbp
	.cfi_def_cfa_offset 16
	.cfi_offset 6, -16
	movq	%rsp, %rbp
	.cfi_def_cfa_register 6
	movq	%rdi, -8(%rbp)
	nop
	popq	%rbp
	.cfi_def_cfa 7, 8
	ret
	.cfi_endproc
.LFE6798:
	.size	_ZN9__gnu_cxx13new_allocatorINSt7__cxx1112basic_stringIcSt11char_traitsIcESaIcEEEED2Ev, .-_ZN9__gnu_cxx13new_allocatorINSt7__cxx1112basic_stringIcSt11char_traitsIcESaIcEEEED2Ev
	.weak	_ZN9__gnu_cxx13new_allocatorINSt7__cxx1112basic_stringIcSt11char_traitsIcESaIcEEEED1Ev
	.set	_ZN9__gnu_cxx13new_allocatorINSt7__cxx1112basic_stringIcSt11char_traitsIcESaIcEEEED1Ev,_ZN9__gnu_cxx13new_allocatorINSt7__cxx1112basic_stringIcSt11char_traitsIcESaIcEEEED2Ev
	.section	.text._ZNSt12_Vector_baseINSt7__cxx1112basic_stringIcSt11char_traitsIcESaIcEEESaIS5_EE12_Vector_implD2Ev,"axG",@progbits,_ZNSt12_Vector_baseINSt7__cxx1112basic_stringIcSt11char_traitsIcESaIcEEESaIS5_EE12_Vector_implD5Ev,comdat
	.align 2
	.weak	_ZNSt12_Vector_baseINSt7__cxx1112basic_stringIcSt11char_traitsIcESaIcEEESaIS5_EE12_Vector_implD2Ev
	.type	_ZNSt12_Vector_baseINSt7__cxx1112basic_stringIcSt11char_traitsIcESaIcEEESaIS5_EE12_Vector_implD2Ev, @function
_ZNSt12_Vector_baseINSt7__cxx1112basic_stringIcSt11char_traitsIcESaIcEEESaIS5_EE12_Vector_implD2Ev:
.LFB6802:
	.cfi_startproc
	pushq	%rbp
	.cfi_def_cfa_offset 16
	.cfi_offset 6, -16
	movq	%rsp, %rbp
	.cfi_def_cfa_register 6
	subq	$16, %rsp
	movq	%rdi, -8(%rbp)
	movq	-8(%rbp), %rax
	movq	%rax, %rdi
	call	_ZNSaINSt7__cxx1112basic_stringIcSt11char_traitsIcESaIcEEEED2Ev
	nop
	leave
	.cfi_def_cfa 7, 8
	ret
	.cfi_endproc
.LFE6802:
	.size	_ZNSt12_Vector_baseINSt7__cxx1112basic_stringIcSt11char_traitsIcESaIcEEESaIS5_EE12_Vector_implD2Ev, .-_ZNSt12_Vector_baseINSt7__cxx1112basic_stringIcSt11char_traitsIcESaIcEEESaIS5_EE12_Vector_implD2Ev
	.weak	_ZNSt12_Vector_baseINSt7__cxx1112basic_stringIcSt11char_traitsIcESaIcEEESaIS5_EE12_Vector_implD1Ev
	.set	_ZNSt12_Vector_baseINSt7__cxx1112basic_stringIcSt11char_traitsIcESaIcEEESaIS5_EE12_Vector_implD1Ev,_ZNSt12_Vector_baseINSt7__cxx1112basic_stringIcSt11char_traitsIcESaIcEEESaIS5_EE12_Vector_implD2Ev
	.section	.text._ZNSt12_Vector_baseINSt7__cxx1112basic_stringIcSt11char_traitsIcESaIcEEESaIS5_EEC2ERKS6_,"axG",@progbits,_ZNSt12_Vector_baseINSt7__cxx1112basic_stringIcSt11char_traitsIcESaIcEEESaIS5_EEC5ERKS6_,comdat
	.align 2
	.weak	_ZNSt12_Vector_baseINSt7__cxx1112basic_stringIcSt11char_traitsIcESaIcEEESaIS5_EEC2ERKS6_
	.type	_ZNSt12_Vector_baseINSt7__cxx1112basic_stringIcSt11char_traitsIcESaIcEEESaIS5_EEC2ERKS6_, @function
_ZNSt12_Vector_baseINSt7__cxx1112basic_stringIcSt11char_traitsIcESaIcEEESaIS5_EEC2ERKS6_:
.LFB6804:
	.cfi_startproc
	pushq	%rbp
	.cfi_def_cfa_offset 16
	.cfi_offset 6, -16
	movq	%rsp, %rbp
	.cfi_def_cfa_register 6
	subq	$16, %rsp
	movq	%rdi, -8(%rbp)
	movq	%rsi, -16(%rbp)
	movq	-8(%rbp), %rax
	movq	-16(%rbp), %rdx
	movq	%rdx, %rsi
	movq	%rax, %rdi
	call	_ZNSt12_Vector_baseINSt7__cxx1112basic_stringIcSt11char_traitsIcESaIcEEESaIS5_EE12_Vector_implC1ERKS6_
	nop
	leave
	.cfi_def_cfa 7, 8
	ret
	.cfi_endproc
.LFE6804:
	.size	_ZNSt12_Vector_baseINSt7__cxx1112basic_stringIcSt11char_traitsIcESaIcEEESaIS5_EEC2ERKS6_, .-_ZNSt12_Vector_baseINSt7__cxx1112basic_stringIcSt11char_traitsIcESaIcEEESaIS5_EEC2ERKS6_
	.weak	_ZNSt12_Vector_baseINSt7__cxx1112basic_stringIcSt11char_traitsIcESaIcEEESaIS5_EEC1ERKS6_
	.set	_ZNSt12_Vector_baseINSt7__cxx1112basic_stringIcSt11char_traitsIcESaIcEEESaIS5_EEC1ERKS6_,_ZNSt12_Vector_baseINSt7__cxx1112basic_stringIcSt11char_traitsIcESaIcEEESaIS5_EEC2ERKS6_
	.section	.text._ZNSt12_Vector_baseINSt7__cxx1112basic_stringIcSt11char_traitsIcESaIcEEESaIS5_EED2Ev,"axG",@progbits,_ZNSt12_Vector_baseINSt7__cxx1112basic_stringIcSt11char_traitsIcESaIcEEESaIS5_EED5Ev,comdat
	.align 2
	.weak	_ZNSt12_Vector_baseINSt7__cxx1112basic_stringIcSt11char_traitsIcESaIcEEESaIS5_EED2Ev
	.type	_ZNSt12_Vector_baseINSt7__cxx1112basic_stringIcSt11char_traitsIcESaIcEEESaIS5_EED2Ev, @function
_ZNSt12_Vector_baseINSt7__cxx1112basic_stringIcSt11char_traitsIcESaIcEEESaIS5_EED2Ev:
.LFB6807:
	.cfi_startproc
	.cfi_personality 0x3,__gxx_personality_v0
	.cfi_lsda 0x3,.LLSDA6807
	pushq	%rbp
	.cfi_def_cfa_offset 16
	.cfi_offset 6, -16
	movq	%rsp, %rbp
	.cfi_def_cfa_register 6
	subq	$16, %rsp
	movq	%rdi, -8(%rbp)
	movq	-8(%rbp), %rax
	movq	16(%rax), %rax
	movq	%rax, %rdx
	movq	-8(%rbp), %rax
	movq	(%rax), %rax
	subq	%rax, %rdx
	movq	%rdx, %rax
	sarq	$5, %rax
	movq	%rax, %rdx
	movq	-8(%rbp), %rax
	movq	(%rax), %rcx
	movq	-8(%rbp), %rax
	movq	%rcx, %rsi
	movq	%rax, %rdi
	call	_ZNSt12_Vector_baseINSt7__cxx1112basic_stringIcSt11char_traitsIcESaIcEEESaIS5_EE13_M_deallocateEPS5_m
	movq	-8(%rbp), %rax
	movq	%rax, %rdi
	call	_ZNSt12_Vector_baseINSt7__cxx1112basic_stringIcSt11char_traitsIcESaIcEEESaIS5_EE12_Vector_implD1Ev
	nop
	leave
	.cfi_def_cfa 7, 8
	ret
	.cfi_endproc
.LFE6807:
	.section	.gcc_except_table
.LLSDA6807:
	.byte	0xff
	.byte	0xff
	.byte	0x1
	.uleb128 .LLSDACSE6807-.LLSDACSB6807
.LLSDACSB6807:
.LLSDACSE6807:
	.section	.text._ZNSt12_Vector_baseINSt7__cxx1112basic_stringIcSt11char_traitsIcESaIcEEESaIS5_EED2Ev,"axG",@progbits,_ZNSt12_Vector_baseINSt7__cxx1112basic_stringIcSt11char_traitsIcESaIcEEESaIS5_EED5Ev,comdat
	.size	_ZNSt12_Vector_baseINSt7__cxx1112basic_stringIcSt11char_traitsIcESaIcEEESaIS5_EED2Ev, .-_ZNSt12_Vector_baseINSt7__cxx1112basic_stringIcSt11char_traitsIcESaIcEEESaIS5_EED2Ev
	.weak	_ZNSt12_Vector_baseINSt7__cxx1112basic_stringIcSt11char_traitsIcESaIcEEESaIS5_EED1Ev
	.set	_ZNSt12_Vector_baseINSt7__cxx1112basic_stringIcSt11char_traitsIcESaIcEEESaIS5_EED1Ev,_ZNSt12_Vector_baseINSt7__cxx1112basic_stringIcSt11char_traitsIcESaIcEEESaIS5_EED2Ev
	.section	.text._ZNSt6vectorINSt7__cxx1112basic_stringIcSt11char_traitsIcESaIcEEESaIS5_EE19_M_range_initializeIPKS5_EEvT_SB_St20forward_iterator_tag,"axG",@progbits,_ZNSt6vectorINSt7__cxx1112basic_stringIcSt11char_traitsIcESaIcEEESaIS5_EE19_M_range_initializeIPKS5_EEvT_SB_St20forward_iterator_tag,comdat
	.align 2
	.weak	_ZNSt6vectorINSt7__cxx1112basic_stringIcSt11char_traitsIcESaIcEEESaIS5_EE19_M_range_initializeIPKS5_EEvT_SB_St20forward_iterator_tag
	.type	_ZNSt6vectorINSt7__cxx1112basic_stringIcSt11char_traitsIcESaIcEEESaIS5_EE19_M_range_initializeIPKS5_EEvT_SB_St20forward_iterator_tag, @function
_ZNSt6vectorINSt7__cxx1112basic_stringIcSt11char_traitsIcESaIcEEESaIS5_EE19_M_range_initializeIPKS5_EEvT_SB_St20forward_iterator_tag:
.LFB6809:
	.cfi_startproc
	pushq	%rbp
	.cfi_def_cfa_offset 16
	.cfi_offset 6, -16
	movq	%rsp, %rbp
	.cfi_def_cfa_register 6
	subq	$48, %rsp
	movq	%rdi, -24(%rbp)
	movq	%rsi, -32(%rbp)
	movq	%rdx, -40(%rbp)
	movq	-40(%rbp), %rdx
	movq	-32(%rbp), %rax
	movq	%rdx, %rsi
	movq	%rax, %rdi
	call	_ZSt8distanceIPKNSt7__cxx1112basic_stringIcSt11char_traitsIcESaIcEEEENSt15iterator_traitsIT_E15difference_typeES9_S9_
	movq	%rax, -8(%rbp)
	movq	-24(%rbp), %rax
	movq	-8(%rbp), %rdx
	movq	%rdx, %rsi
	movq	%rax, %rdi
	call	_ZNSt12_Vector_baseINSt7__cxx1112basic_stringIcSt11char_traitsIcESaIcEEESaIS5_EE11_M_allocateEm
	movq	%rax, %rdx
	movq	-24(%rbp), %rax
	movq	%rdx, (%rax)
	movq	-24(%rbp), %rax
	movq	(%rax), %rax
	movq	-8(%rbp), %rdx
	salq	$5, %rdx
	addq	%rax, %rdx
	movq	-24(%rbp), %rax
	movq	%rdx, 16(%rax)
	movq	-24(%rbp), %rax
	movq	%rax, %rdi
	call	_ZNSt12_Vector_baseINSt7__cxx1112basic_stringIcSt11char_traitsIcESaIcEEESaIS5_EE19_M_get_Tp_allocatorEv
	movq	%rax, %rcx
	movq	-24(%rbp), %rax
	movq	(%rax), %rdx
	movq	-40(%rbp), %rsi
	movq	-32(%rbp), %rax
	movq	%rax, %rdi
	call	_ZSt22__uninitialized_copy_aIPKNSt7__cxx1112basic_stringIcSt11char_traitsIcESaIcEEEPS5_S5_ET0_T_SA_S9_RSaIT1_E
	movq	%rax, %rdx
	movq	-24(%rbp), %rax
	movq	%rdx, 8(%rax)
	nop
	leave
	.cfi_def_cfa 7, 8
	ret
	.cfi_endproc
.LFE6809:
	.size	_ZNSt6vectorINSt7__cxx1112basic_stringIcSt11char_traitsIcESaIcEEESaIS5_EE19_M_range_initializeIPKS5_EEvT_SB_St20forward_iterator_tag, .-_ZNSt6vectorINSt7__cxx1112basic_stringIcSt11char_traitsIcESaIcEEESaIS5_EE19_M_range_initializeIPKS5_EEvT_SB_St20forward_iterator_tag
	.section	.text._ZNSt12_Vector_baseINSt7__cxx1112basic_stringIcSt11char_traitsIcESaIcEEESaIS5_EE19_M_get_Tp_allocatorEv,"axG",@progbits,_ZNSt12_Vector_baseINSt7__cxx1112basic_stringIcSt11char_traitsIcESaIcEEESaIS5_EE19_M_get_Tp_allocatorEv,comdat
	.align 2
	.weak	_ZNSt12_Vector_baseINSt7__cxx1112basic_stringIcSt11char_traitsIcESaIcEEESaIS5_EE19_M_get_Tp_allocatorEv
	.type	_ZNSt12_Vector_baseINSt7__cxx1112basic_stringIcSt11char_traitsIcESaIcEEESaIS5_EE19_M_get_Tp_allocatorEv, @function
_ZNSt12_Vector_baseINSt7__cxx1112basic_stringIcSt11char_traitsIcESaIcEEESaIS5_EE19_M_get_Tp_allocatorEv:
.LFB6810:
	.cfi_startproc
	pushq	%rbp
	.cfi_def_cfa_offset 16
	.cfi_offset 6, -16
	movq	%rsp, %rbp
	.cfi_def_cfa_register 6
	movq	%rdi, -8(%rbp)
	movq	-8(%rbp), %rax
	popq	%rbp
	.cfi_def_cfa 7, 8
	ret
	.cfi_endproc
.LFE6810:
	.size	_ZNSt12_Vector_baseINSt7__cxx1112basic_stringIcSt11char_traitsIcESaIcEEESaIS5_EE19_M_get_Tp_allocatorEv, .-_ZNSt12_Vector_baseINSt7__cxx1112basic_stringIcSt11char_traitsIcESaIcEEESaIS5_EE19_M_get_Tp_allocatorEv
	.section	.text._ZSt8_DestroyIPNSt7__cxx1112basic_stringIcSt11char_traitsIcESaIcEEES5_EvT_S7_RSaIT0_E,"axG",@progbits,_ZSt8_DestroyIPNSt7__cxx1112basic_stringIcSt11char_traitsIcESaIcEEES5_EvT_S7_RSaIT0_E,comdat
	.weak	_ZSt8_DestroyIPNSt7__cxx1112basic_stringIcSt11char_traitsIcESaIcEEES5_EvT_S7_RSaIT0_E
	.type	_ZSt8_DestroyIPNSt7__cxx1112basic_stringIcSt11char_traitsIcESaIcEEES5_EvT_S7_RSaIT0_E, @function
_ZSt8_DestroyIPNSt7__cxx1112basic_stringIcSt11char_traitsIcESaIcEEES5_EvT_S7_RSaIT0_E:
.LFB6811:
	.cfi_startproc
	pushq	%rbp
	.cfi_def_cfa_offset 16
	.cfi_offset 6, -16
	movq	%rsp, %rbp
	.cfi_def_cfa_register 6
	subq	$32, %rsp
	movq	%rdi, -8(%rbp)
	movq	%rsi, -16(%rbp)
	movq	%rdx, -24(%rbp)
	movq	-16(%rbp), %rdx
	movq	-8(%rbp), %rax
	movq	%rdx, %rsi
	movq	%rax, %rdi
	call	_ZSt8_DestroyIPNSt7__cxx1112basic_stringIcSt11char_traitsIcESaIcEEEEvT_S7_
	nop
	leave
	.cfi_def_cfa 7, 8
	ret
	.cfi_endproc
.LFE6811:
	.size	_ZSt8_DestroyIPNSt7__cxx1112basic_stringIcSt11char_traitsIcESaIcEEES5_EvT_S7_RSaIT0_E, .-_ZSt8_DestroyIPNSt7__cxx1112basic_stringIcSt11char_traitsIcESaIcEEES5_EvT_S7_RSaIT0_E
	.section	.text._ZN9__gnu_cxx17__normal_iteratorIPKNSt7__cxx1112basic_stringIcSt11char_traitsIcESaIcEEESt6vectorIS6_SaIS6_EEEC2ERKS8_,"axG",@progbits,_ZN9__gnu_cxx17__normal_iteratorIPKNSt7__cxx1112basic_stringIcSt11char_traitsIcESaIcEEESt6vectorIS6_SaIS6_EEEC5ERKS8_,comdat
	.align 2
	.weak	_ZN9__gnu_cxx17__normal_iteratorIPKNSt7__cxx1112basic_stringIcSt11char_traitsIcESaIcEEESt6vectorIS6_SaIS6_EEEC2ERKS8_
	.type	_ZN9__gnu_cxx17__normal_iteratorIPKNSt7__cxx1112basic_stringIcSt11char_traitsIcESaIcEEESt6vectorIS6_SaIS6_EEEC2ERKS8_, @function
_ZN9__gnu_cxx17__normal_iteratorIPKNSt7__cxx1112basic_stringIcSt11char_traitsIcESaIcEEESt6vectorIS6_SaIS6_EEEC2ERKS8_:
.LFB6813:
	.cfi_startproc
	pushq	%rbp
	.cfi_def_cfa_offset 16
	.cfi_offset 6, -16
	movq	%rsp, %rbp
	.cfi_def_cfa_register 6
	movq	%rdi, -8(%rbp)
	movq	%rsi, -16(%rbp)
	movq	-16(%rbp), %rax
	movq	(%rax), %rdx
	movq	-8(%rbp), %rax
	movq	%rdx, (%rax)
	nop
	popq	%rbp
	.cfi_def_cfa 7, 8
	ret
	.cfi_endproc
.LFE6813:
	.size	_ZN9__gnu_cxx17__normal_iteratorIPKNSt7__cxx1112basic_stringIcSt11char_traitsIcESaIcEEESt6vectorIS6_SaIS6_EEEC2ERKS8_, .-_ZN9__gnu_cxx17__normal_iteratorIPKNSt7__cxx1112basic_stringIcSt11char_traitsIcESaIcEEESt6vectorIS6_SaIS6_EEEC2ERKS8_
	.weak	_ZN9__gnu_cxx17__normal_iteratorIPKNSt7__cxx1112basic_stringIcSt11char_traitsIcESaIcEEESt6vectorIS6_SaIS6_EEEC1ERKS8_
	.set	_ZN9__gnu_cxx17__normal_iteratorIPKNSt7__cxx1112basic_stringIcSt11char_traitsIcESaIcEEESt6vectorIS6_SaIS6_EEEC1ERKS8_,_ZN9__gnu_cxx17__normal_iteratorIPKNSt7__cxx1112basic_stringIcSt11char_traitsIcESaIcEEESt6vectorIS6_SaIS6_EEEC2ERKS8_
	.section	.text._ZN9__gnu_cxx5__ops11__pred_iterIPFbRKNSt7__cxx1112basic_stringIcSt11char_traitsIcESaIcEEEEEENS0_10_Iter_predIT_EESD_,"axG",@progbits,_ZN9__gnu_cxx5__ops11__pred_iterIPFbRKNSt7__cxx1112basic_stringIcSt11char_traitsIcESaIcEEEEEENS0_10_Iter_predIT_EESD_,comdat
	.weak	_ZN9__gnu_cxx5__ops11__pred_iterIPFbRKNSt7__cxx1112basic_stringIcSt11char_traitsIcESaIcEEEEEENS0_10_Iter_predIT_EESD_
	.type	_ZN9__gnu_cxx5__ops11__pred_iterIPFbRKNSt7__cxx1112basic_stringIcSt11char_traitsIcESaIcEEEEEENS0_10_Iter_predIT_EESD_, @function
_ZN9__gnu_cxx5__ops11__pred_iterIPFbRKNSt7__cxx1112basic_stringIcSt11char_traitsIcESaIcEEEEEENS0_10_Iter_predIT_EESD_:
.LFB6815:
	.cfi_startproc
	pushq	%rbp
	.cfi_def_cfa_offset 16
	.cfi_offset 6, -16
	movq	%rsp, %rbp
	.cfi_def_cfa_register 6
	subq	$32, %rsp
	movq	%rdi, -24(%rbp)
	movq	%fs:40, %rax
	movq	%rax, -8(%rbp)
	xorl	%eax, %eax
	movq	-24(%rbp), %rdx
	leaq	-16(%rbp), %rax
	movq	%rdx, %rsi
	movq	%rax, %rdi
	call	_ZN9__gnu_cxx5__ops10_Iter_predIPFbRKNSt7__cxx1112basic_stringIcSt11char_traitsIcESaIcEEEEEC1ESB_
	movq	-16(%rbp), %rax
	movq	-8(%rbp), %rcx
	xorq	%fs:40, %rcx
	je	.L62
	call	__stack_chk_fail
.L62:
	leave
	.cfi_def_cfa 7, 8
	ret
	.cfi_endproc
.LFE6815:
	.size	_ZN9__gnu_cxx5__ops11__pred_iterIPFbRKNSt7__cxx1112basic_stringIcSt11char_traitsIcESaIcEEEEEENS0_10_Iter_predIT_EESD_, .-_ZN9__gnu_cxx5__ops11__pred_iterIPFbRKNSt7__cxx1112basic_stringIcSt11char_traitsIcESaIcEEEEEENS0_10_Iter_predIT_EESD_
	.section	.text._ZSt10__count_ifIN9__gnu_cxx17__normal_iteratorIPKNSt7__cxx1112basic_stringIcSt11char_traitsIcESaIcEEESt6vectorIS7_SaIS7_EEEENS0_5__ops10_Iter_predIPFbRS8_EEEENSt15iterator_traitsIT_E15difference_typeESL_SL_T0_,"axG",@progbits,_ZSt10__count_ifIN9__gnu_cxx17__normal_iteratorIPKNSt7__cxx1112basic_stringIcSt11char_traitsIcESaIcEEESt6vectorIS7_SaIS7_EEEENS0_5__ops10_Iter_predIPFbRS8_EEEENSt15iterator_traitsIT_E15difference_typeESL_SL_T0_,comdat
	.weak	_ZSt10__count_ifIN9__gnu_cxx17__normal_iteratorIPKNSt7__cxx1112basic_stringIcSt11char_traitsIcESaIcEEESt6vectorIS7_SaIS7_EEEENS0_5__ops10_Iter_predIPFbRS8_EEEENSt15iterator_traitsIT_E15difference_typeESL_SL_T0_
	.type	_ZSt10__count_ifIN9__gnu_cxx17__normal_iteratorIPKNSt7__cxx1112basic_stringIcSt11char_traitsIcESaIcEEESt6vectorIS7_SaIS7_EEEENS0_5__ops10_Iter_predIPFbRS8_EEEENSt15iterator_traitsIT_E15difference_typeESL_SL_T0_, @function
_ZSt10__count_ifIN9__gnu_cxx17__normal_iteratorIPKNSt7__cxx1112basic_stringIcSt11char_traitsIcESaIcEEESt6vectorIS7_SaIS7_EEEENS0_5__ops10_Iter_predIPFbRS8_EEEENSt15iterator_traitsIT_E15difference_typeESL_SL_T0_:
.LFB6816:
	.cfi_startproc
	pushq	%rbp
	.cfi_def_cfa_offset 16
	.cfi_offset 6, -16
	movq	%rsp, %rbp
	.cfi_def_cfa_register 6
	subq	$64, %rsp
	movq	%rdi, -32(%rbp)
	movq	%rsi, -48(%rbp)
	movq	%rdx, -64(%rbp)
	movq	$0, -8(%rbp)
.L66:
	leaq	-48(%rbp), %rdx
	leaq	-32(%rbp), %rax
	movq	%rdx, %rsi
	movq	%rax, %rdi
	call	_ZN9__gnu_cxxneIPKNSt7__cxx1112basic_stringIcSt11char_traitsIcESaIcEEESt6vectorIS6_SaIS6_EEEEbRKNS_17__normal_iteratorIT_T0_EESH_
	testb	%al, %al
	je	.L64
	movq	-32(%rbp), %rdx
	leaq	-64(%rbp), %rax
	movq	%rdx, %rsi
	movq	%rax, %rdi
	call	_ZN9__gnu_cxx5__ops10_Iter_predIPFbRKNSt7__cxx1112basic_stringIcSt11char_traitsIcESaIcEEEEEclINS_17__normal_iteratorIPS8_St6vectorIS7_SaIS7_EEEEEEbT_
	testb	%al, %al
	je	.L65
	addq	$1, -8(%rbp)
.L65:
	leaq	-32(%rbp), %rax
	movq	%rax, %rdi
	call	_ZN9__gnu_cxx17__normal_iteratorIPKNSt7__cxx1112basic_stringIcSt11char_traitsIcESaIcEEESt6vectorIS6_SaIS6_EEEppEv
	jmp	.L66
.L64:
	movq	-8(%rbp), %rax
	leave
	.cfi_def_cfa 7, 8
	ret
	.cfi_endproc
.LFE6816:
	.size	_ZSt10__count_ifIN9__gnu_cxx17__normal_iteratorIPKNSt7__cxx1112basic_stringIcSt11char_traitsIcESaIcEEESt6vectorIS7_SaIS7_EEEENS0_5__ops10_Iter_predIPFbRS8_EEEENSt15iterator_traitsIT_E15difference_typeESL_SL_T0_, .-_ZSt10__count_ifIN9__gnu_cxx17__normal_iteratorIPKNSt7__cxx1112basic_stringIcSt11char_traitsIcESaIcEEESt6vectorIS7_SaIS7_EEEENS0_5__ops10_Iter_predIPFbRS8_EEEENSt15iterator_traitsIT_E15difference_typeESL_SL_T0_
	.section	.text._ZNSt12_Vector_baseINSt7__cxx1112basic_stringIcSt11char_traitsIcESaIcEEESaIS5_EE12_Vector_implC2ERKS6_,"axG",@progbits,_ZNSt12_Vector_baseINSt7__cxx1112basic_stringIcSt11char_traitsIcESaIcEEESaIS5_EE12_Vector_implC5ERKS6_,comdat
	.align 2
	.weak	_ZNSt12_Vector_baseINSt7__cxx1112basic_stringIcSt11char_traitsIcESaIcEEESaIS5_EE12_Vector_implC2ERKS6_
	.type	_ZNSt12_Vector_baseINSt7__cxx1112basic_stringIcSt11char_traitsIcESaIcEEESaIS5_EE12_Vector_implC2ERKS6_, @function
_ZNSt12_Vector_baseINSt7__cxx1112basic_stringIcSt11char_traitsIcESaIcEEESaIS5_EE12_Vector_implC2ERKS6_:
.LFB6853:
	.cfi_startproc
	pushq	%rbp
	.cfi_def_cfa_offset 16
	.cfi_offset 6, -16
	movq	%rsp, %rbp
	.cfi_def_cfa_register 6
	subq	$16, %rsp
	movq	%rdi, -8(%rbp)
	movq	%rsi, -16(%rbp)
	movq	-16(%rbp), %rdx
	movq	-8(%rbp), %rax
	movq	%rdx, %rsi
	movq	%rax, %rdi
	call	_ZNSaINSt7__cxx1112basic_stringIcSt11char_traitsIcESaIcEEEEC2ERKS5_
	movq	-8(%rbp), %rax
	movq	$0, (%rax)
	movq	-8(%rbp), %rax
	movq	$0, 8(%rax)
	movq	-8(%rbp), %rax
	movq	$0, 16(%rax)
	nop
	leave
	.cfi_def_cfa 7, 8
	ret
	.cfi_endproc
.LFE6853:
	.size	_ZNSt12_Vector_baseINSt7__cxx1112basic_stringIcSt11char_traitsIcESaIcEEESaIS5_EE12_Vector_implC2ERKS6_, .-_ZNSt12_Vector_baseINSt7__cxx1112basic_stringIcSt11char_traitsIcESaIcEEESaIS5_EE12_Vector_implC2ERKS6_
	.weak	_ZNSt12_Vector_baseINSt7__cxx1112basic_stringIcSt11char_traitsIcESaIcEEESaIS5_EE12_Vector_implC1ERKS6_
	.set	_ZNSt12_Vector_baseINSt7__cxx1112basic_stringIcSt11char_traitsIcESaIcEEESaIS5_EE12_Vector_implC1ERKS6_,_ZNSt12_Vector_baseINSt7__cxx1112basic_stringIcSt11char_traitsIcESaIcEEESaIS5_EE12_Vector_implC2ERKS6_
	.section	.text._ZNSt12_Vector_baseINSt7__cxx1112basic_stringIcSt11char_traitsIcESaIcEEESaIS5_EE13_M_deallocateEPS5_m,"axG",@progbits,_ZNSt12_Vector_baseINSt7__cxx1112basic_stringIcSt11char_traitsIcESaIcEEESaIS5_EE13_M_deallocateEPS5_m,comdat
	.align 2
	.weak	_ZNSt12_Vector_baseINSt7__cxx1112basic_stringIcSt11char_traitsIcESaIcEEESaIS5_EE13_M_deallocateEPS5_m
	.type	_ZNSt12_Vector_baseINSt7__cxx1112basic_stringIcSt11char_traitsIcESaIcEEESaIS5_EE13_M_deallocateEPS5_m, @function
_ZNSt12_Vector_baseINSt7__cxx1112basic_stringIcSt11char_traitsIcESaIcEEESaIS5_EE13_M_deallocateEPS5_m:
.LFB6855:
	.cfi_startproc
	pushq	%rbp
	.cfi_def_cfa_offset 16
	.cfi_offset 6, -16
	movq	%rsp, %rbp
	.cfi_def_cfa_register 6
	subq	$32, %rsp
	movq	%rdi, -8(%rbp)
	movq	%rsi, -16(%rbp)
	movq	%rdx, -24(%rbp)
	cmpq	$0, -16(%rbp)
	je	.L71
	movq	-8(%rbp), %rax
	movq	-24(%rbp), %rdx
	movq	-16(%rbp), %rcx
	movq	%rcx, %rsi
	movq	%rax, %rdi
	call	_ZNSt16allocator_traitsISaINSt7__cxx1112basic_stringIcSt11char_traitsIcESaIcEEEEE10deallocateERS6_PS5_m
.L71:
	nop
	leave
	.cfi_def_cfa 7, 8
	ret
	.cfi_endproc
.LFE6855:
	.size	_ZNSt12_Vector_baseINSt7__cxx1112basic_stringIcSt11char_traitsIcESaIcEEESaIS5_EE13_M_deallocateEPS5_m, .-_ZNSt12_Vector_baseINSt7__cxx1112basic_stringIcSt11char_traitsIcESaIcEEESaIS5_EE13_M_deallocateEPS5_m
	.section	.text._ZSt8distanceIPKNSt7__cxx1112basic_stringIcSt11char_traitsIcESaIcEEEENSt15iterator_traitsIT_E15difference_typeES9_S9_,"axG",@progbits,_ZSt8distanceIPKNSt7__cxx1112basic_stringIcSt11char_traitsIcESaIcEEEENSt15iterator_traitsIT_E15difference_typeES9_S9_,comdat
	.weak	_ZSt8distanceIPKNSt7__cxx1112basic_stringIcSt11char_traitsIcESaIcEEEENSt15iterator_traitsIT_E15difference_typeES9_S9_
	.type	_ZSt8distanceIPKNSt7__cxx1112basic_stringIcSt11char_traitsIcESaIcEEEENSt15iterator_traitsIT_E15difference_typeES9_S9_, @function
_ZSt8distanceIPKNSt7__cxx1112basic_stringIcSt11char_traitsIcESaIcEEEENSt15iterator_traitsIT_E15difference_typeES9_S9_:
.LFB6856:
	.cfi_startproc
	pushq	%rbp
	.cfi_def_cfa_offset 16
	.cfi_offset 6, -16
	movq	%rsp, %rbp
	.cfi_def_cfa_register 6
	pushq	%rbx
	subq	$40, %rsp
	.cfi_offset 3, -24
	movq	%rdi, -40(%rbp)
	movq	%rsi, -48(%rbp)
	movq	%fs:40, %rax
	movq	%rax, -24(%rbp)
	xorl	%eax, %eax
	leaq	-40(%rbp), %rax
	movq	%rax, %rdi
	call	_ZSt19__iterator_categoryIPKNSt7__cxx1112basic_stringIcSt11char_traitsIcESaIcEEEENSt15iterator_traitsIT_E17iterator_categoryERKS9_
	movq	-40(%rbp), %rax
	movq	-48(%rbp), %rdx
	subq	$8, %rsp
	pushq	%rbx
	movq	%rdx, %rsi
	movq	%rax, %rdi
	call	_ZSt10__distanceIPKNSt7__cxx1112basic_stringIcSt11char_traitsIcESaIcEEEENSt15iterator_traitsIT_E15difference_typeES9_S9_St26random_access_iterator_tag
	addq	$16, %rsp
	movq	-24(%rbp), %rcx
	xorq	%fs:40, %rcx
	je	.L74
	call	__stack_chk_fail
.L74:
	movq	-8(%rbp), %rbx
	leave
	.cfi_def_cfa 7, 8
	ret
	.cfi_endproc
.LFE6856:
	.size	_ZSt8distanceIPKNSt7__cxx1112basic_stringIcSt11char_traitsIcESaIcEEEENSt15iterator_traitsIT_E15difference_typeES9_S9_, .-_ZSt8distanceIPKNSt7__cxx1112basic_stringIcSt11char_traitsIcESaIcEEEENSt15iterator_traitsIT_E15difference_typeES9_S9_
	.section	.text._ZNSt12_Vector_baseINSt7__cxx1112basic_stringIcSt11char_traitsIcESaIcEEESaIS5_EE11_M_allocateEm,"axG",@progbits,_ZNSt12_Vector_baseINSt7__cxx1112basic_stringIcSt11char_traitsIcESaIcEEESaIS5_EE11_M_allocateEm,comdat
	.align 2
	.weak	_ZNSt12_Vector_baseINSt7__cxx1112basic_stringIcSt11char_traitsIcESaIcEEESaIS5_EE11_M_allocateEm
	.type	_ZNSt12_Vector_baseINSt7__cxx1112basic_stringIcSt11char_traitsIcESaIcEEESaIS5_EE11_M_allocateEm, @function
_ZNSt12_Vector_baseINSt7__cxx1112basic_stringIcSt11char_traitsIcESaIcEEESaIS5_EE11_M_allocateEm:
.LFB6857:
	.cfi_startproc
	pushq	%rbp
	.cfi_def_cfa_offset 16
	.cfi_offset 6, -16
	movq	%rsp, %rbp
	.cfi_def_cfa_register 6
	subq	$16, %rsp
	movq	%rdi, -8(%rbp)
	movq	%rsi, -16(%rbp)
	cmpq	$0, -16(%rbp)
	je	.L76
	movq	-8(%rbp), %rax
	movq	-16(%rbp), %rdx
	movq	%rdx, %rsi
	movq	%rax, %rdi
	call	_ZNSt16allocator_traitsISaINSt7__cxx1112basic_stringIcSt11char_traitsIcESaIcEEEEE8allocateERS6_m
	jmp	.L78
.L76:
	movl	$0, %eax
.L78:
	leave
	.cfi_def_cfa 7, 8
	ret
	.cfi_endproc
.LFE6857:
	.size	_ZNSt12_Vector_baseINSt7__cxx1112basic_stringIcSt11char_traitsIcESaIcEEESaIS5_EE11_M_allocateEm, .-_ZNSt12_Vector_baseINSt7__cxx1112basic_stringIcSt11char_traitsIcESaIcEEESaIS5_EE11_M_allocateEm
	.section	.text._ZSt22__uninitialized_copy_aIPKNSt7__cxx1112basic_stringIcSt11char_traitsIcESaIcEEEPS5_S5_ET0_T_SA_S9_RSaIT1_E,"axG",@progbits,_ZSt22__uninitialized_copy_aIPKNSt7__cxx1112basic_stringIcSt11char_traitsIcESaIcEEEPS5_S5_ET0_T_SA_S9_RSaIT1_E,comdat
	.weak	_ZSt22__uninitialized_copy_aIPKNSt7__cxx1112basic_stringIcSt11char_traitsIcESaIcEEEPS5_S5_ET0_T_SA_S9_RSaIT1_E
	.type	_ZSt22__uninitialized_copy_aIPKNSt7__cxx1112basic_stringIcSt11char_traitsIcESaIcEEEPS5_S5_ET0_T_SA_S9_RSaIT1_E, @function
_ZSt22__uninitialized_copy_aIPKNSt7__cxx1112basic_stringIcSt11char_traitsIcESaIcEEEPS5_S5_ET0_T_SA_S9_RSaIT1_E:
.LFB6858:
	.cfi_startproc
	pushq	%rbp
	.cfi_def_cfa_offset 16
	.cfi_offset 6, -16
	movq	%rsp, %rbp
	.cfi_def_cfa_register 6
	subq	$32, %rsp
	movq	%rdi, -8(%rbp)
	movq	%rsi, -16(%rbp)
	movq	%rdx, -24(%rbp)
	movq	%rcx, -32(%rbp)
	movq	-24(%rbp), %rdx
	movq	-16(%rbp), %rcx
	movq	-8(%rbp), %rax
	movq	%rcx, %rsi
	movq	%rax, %rdi
	call	_ZSt18uninitialized_copyIPKNSt7__cxx1112basic_stringIcSt11char_traitsIcESaIcEEEPS5_ET0_T_SA_S9_
	leave
	.cfi_def_cfa 7, 8
	ret
	.cfi_endproc
.LFE6858:
	.size	_ZSt22__uninitialized_copy_aIPKNSt7__cxx1112basic_stringIcSt11char_traitsIcESaIcEEEPS5_S5_ET0_T_SA_S9_RSaIT1_E, .-_ZSt22__uninitialized_copy_aIPKNSt7__cxx1112basic_stringIcSt11char_traitsIcESaIcEEEPS5_S5_ET0_T_SA_S9_RSaIT1_E
	.section	.text._ZSt8_DestroyIPNSt7__cxx1112basic_stringIcSt11char_traitsIcESaIcEEEEvT_S7_,"axG",@progbits,_ZSt8_DestroyIPNSt7__cxx1112basic_stringIcSt11char_traitsIcESaIcEEEEvT_S7_,comdat
	.weak	_ZSt8_DestroyIPNSt7__cxx1112basic_stringIcSt11char_traitsIcESaIcEEEEvT_S7_
	.type	_ZSt8_DestroyIPNSt7__cxx1112basic_stringIcSt11char_traitsIcESaIcEEEEvT_S7_, @function
_ZSt8_DestroyIPNSt7__cxx1112basic_stringIcSt11char_traitsIcESaIcEEEEvT_S7_:
.LFB6859:
	.cfi_startproc
	pushq	%rbp
	.cfi_def_cfa_offset 16
	.cfi_offset 6, -16
	movq	%rsp, %rbp
	.cfi_def_cfa_register 6
	subq	$16, %rsp
	movq	%rdi, -8(%rbp)
	movq	%rsi, -16(%rbp)
	movq	-16(%rbp), %rdx
	movq	-8(%rbp), %rax
	movq	%rdx, %rsi
	movq	%rax, %rdi
	call	_ZNSt12_Destroy_auxILb0EE9__destroyIPNSt7__cxx1112basic_stringIcSt11char_traitsIcESaIcEEEEEvT_S9_
	nop
	leave
	.cfi_def_cfa 7, 8
	ret
	.cfi_endproc
.LFE6859:
	.size	_ZSt8_DestroyIPNSt7__cxx1112basic_stringIcSt11char_traitsIcESaIcEEEEvT_S7_, .-_ZSt8_DestroyIPNSt7__cxx1112basic_stringIcSt11char_traitsIcESaIcEEEEvT_S7_
	.section	.text._ZN9__gnu_cxx5__ops10_Iter_predIPFbRKNSt7__cxx1112basic_stringIcSt11char_traitsIcESaIcEEEEEC2ESB_,"axG",@progbits,_ZN9__gnu_cxx5__ops10_Iter_predIPFbRKNSt7__cxx1112basic_stringIcSt11char_traitsIcESaIcEEEEEC5ESB_,comdat
	.align 2
	.weak	_ZN9__gnu_cxx5__ops10_Iter_predIPFbRKNSt7__cxx1112basic_stringIcSt11char_traitsIcESaIcEEEEEC2ESB_
	.type	_ZN9__gnu_cxx5__ops10_Iter_predIPFbRKNSt7__cxx1112basic_stringIcSt11char_traitsIcESaIcEEEEEC2ESB_, @function
_ZN9__gnu_cxx5__ops10_Iter_predIPFbRKNSt7__cxx1112basic_stringIcSt11char_traitsIcESaIcEEEEEC2ESB_:
.LFB6861:
	.cfi_startproc
	pushq	%rbp
	.cfi_def_cfa_offset 16
	.cfi_offset 6, -16
	movq	%rsp, %rbp
	.cfi_def_cfa_register 6
	movq	%rdi, -8(%rbp)
	movq	%rsi, -16(%rbp)
	movq	-8(%rbp), %rax
	movq	-16(%rbp), %rdx
	movq	%rdx, (%rax)
	nop
	popq	%rbp
	.cfi_def_cfa 7, 8
	ret
	.cfi_endproc
.LFE6861:
	.size	_ZN9__gnu_cxx5__ops10_Iter_predIPFbRKNSt7__cxx1112basic_stringIcSt11char_traitsIcESaIcEEEEEC2ESB_, .-_ZN9__gnu_cxx5__ops10_Iter_predIPFbRKNSt7__cxx1112basic_stringIcSt11char_traitsIcESaIcEEEEEC2ESB_
	.weak	_ZN9__gnu_cxx5__ops10_Iter_predIPFbRKNSt7__cxx1112basic_stringIcSt11char_traitsIcESaIcEEEEEC1ESB_
	.set	_ZN9__gnu_cxx5__ops10_Iter_predIPFbRKNSt7__cxx1112basic_stringIcSt11char_traitsIcESaIcEEEEEC1ESB_,_ZN9__gnu_cxx5__ops10_Iter_predIPFbRKNSt7__cxx1112basic_stringIcSt11char_traitsIcESaIcEEEEEC2ESB_
	.section	.text._ZN9__gnu_cxxneIPKNSt7__cxx1112basic_stringIcSt11char_traitsIcESaIcEEESt6vectorIS6_SaIS6_EEEEbRKNS_17__normal_iteratorIT_T0_EESH_,"axG",@progbits,_ZN9__gnu_cxxneIPKNSt7__cxx1112basic_stringIcSt11char_traitsIcESaIcEEESt6vectorIS6_SaIS6_EEEEbRKNS_17__normal_iteratorIT_T0_EESH_,comdat
	.weak	_ZN9__gnu_cxxneIPKNSt7__cxx1112basic_stringIcSt11char_traitsIcESaIcEEESt6vectorIS6_SaIS6_EEEEbRKNS_17__normal_iteratorIT_T0_EESH_
	.type	_ZN9__gnu_cxxneIPKNSt7__cxx1112basic_stringIcSt11char_traitsIcESaIcEEESt6vectorIS6_SaIS6_EEEEbRKNS_17__normal_iteratorIT_T0_EESH_, @function
_ZN9__gnu_cxxneIPKNSt7__cxx1112basic_stringIcSt11char_traitsIcESaIcEEESt6vectorIS6_SaIS6_EEEEbRKNS_17__normal_iteratorIT_T0_EESH_:
.LFB6863:
	.cfi_startproc
	pushq	%rbp
	.cfi_def_cfa_offset 16
	.cfi_offset 6, -16
	movq	%rsp, %rbp
	.cfi_def_cfa_register 6
	pushq	%rbx
	subq	$24, %rsp
	.cfi_offset 3, -24
	movq	%rdi, -24(%rbp)
	movq	%rsi, -32(%rbp)
	movq	-24(%rbp), %rax
	movq	%rax, %rdi
	call	_ZNK9__gnu_cxx17__normal_iteratorIPKNSt7__cxx1112basic_stringIcSt11char_traitsIcESaIcEEESt6vectorIS6_SaIS6_EEE4baseEv
	movq	(%rax), %rbx
	movq	-32(%rbp), %rax
	movq	%rax, %rdi
	call	_ZNK9__gnu_cxx17__normal_iteratorIPKNSt7__cxx1112basic_stringIcSt11char_traitsIcESaIcEEESt6vectorIS6_SaIS6_EEE4baseEv
	movq	(%rax), %rax
	cmpq	%rax, %rbx
	setne	%al
	addq	$24, %rsp
	popq	%rbx
	popq	%rbp
	.cfi_def_cfa 7, 8
	ret
	.cfi_endproc
.LFE6863:
	.size	_ZN9__gnu_cxxneIPKNSt7__cxx1112basic_stringIcSt11char_traitsIcESaIcEEESt6vectorIS6_SaIS6_EEEEbRKNS_17__normal_iteratorIT_T0_EESH_, .-_ZN9__gnu_cxxneIPKNSt7__cxx1112basic_stringIcSt11char_traitsIcESaIcEEESt6vectorIS6_SaIS6_EEEEbRKNS_17__normal_iteratorIT_T0_EESH_
	.section	.text._ZN9__gnu_cxx17__normal_iteratorIPKNSt7__cxx1112basic_stringIcSt11char_traitsIcESaIcEEESt6vectorIS6_SaIS6_EEEppEv,"axG",@progbits,_ZN9__gnu_cxx17__normal_iteratorIPKNSt7__cxx1112basic_stringIcSt11char_traitsIcESaIcEEESt6vectorIS6_SaIS6_EEEppEv,comdat
	.align 2
	.weak	_ZN9__gnu_cxx17__normal_iteratorIPKNSt7__cxx1112basic_stringIcSt11char_traitsIcESaIcEEESt6vectorIS6_SaIS6_EEEppEv
	.type	_ZN9__gnu_cxx17__normal_iteratorIPKNSt7__cxx1112basic_stringIcSt11char_traitsIcESaIcEEESt6vectorIS6_SaIS6_EEEppEv, @function
_ZN9__gnu_cxx17__normal_iteratorIPKNSt7__cxx1112basic_stringIcSt11char_traitsIcESaIcEEESt6vectorIS6_SaIS6_EEEppEv:
.LFB6864:
	.cfi_startproc
	pushq	%rbp
	.cfi_def_cfa_offset 16
	.cfi_offset 6, -16
	movq	%rsp, %rbp
	.cfi_def_cfa_register 6
	movq	%rdi, -8(%rbp)
	movq	-8(%rbp), %rax
	movq	(%rax), %rax
	leaq	32(%rax), %rdx
	movq	-8(%rbp), %rax
	movq	%rdx, (%rax)
	movq	-8(%rbp), %rax
	popq	%rbp
	.cfi_def_cfa 7, 8
	ret
	.cfi_endproc
.LFE6864:
	.size	_ZN9__gnu_cxx17__normal_iteratorIPKNSt7__cxx1112basic_stringIcSt11char_traitsIcESaIcEEESt6vectorIS6_SaIS6_EEEppEv, .-_ZN9__gnu_cxx17__normal_iteratorIPKNSt7__cxx1112basic_stringIcSt11char_traitsIcESaIcEEESt6vectorIS6_SaIS6_EEEppEv
	.section	.text._ZN9__gnu_cxx5__ops10_Iter_predIPFbRKNSt7__cxx1112basic_stringIcSt11char_traitsIcESaIcEEEEEclINS_17__normal_iteratorIPS8_St6vectorIS7_SaIS7_EEEEEEbT_,"axG",@progbits,_ZN9__gnu_cxx5__ops10_Iter_predIPFbRKNSt7__cxx1112basic_stringIcSt11char_traitsIcESaIcEEEEEclINS_17__normal_iteratorIPS8_St6vectorIS7_SaIS7_EEEEEEbT_,comdat
	.align 2
	.weak	_ZN9__gnu_cxx5__ops10_Iter_predIPFbRKNSt7__cxx1112basic_stringIcSt11char_traitsIcESaIcEEEEEclINS_17__normal_iteratorIPS8_St6vectorIS7_SaIS7_EEEEEEbT_
	.type	_ZN9__gnu_cxx5__ops10_Iter_predIPFbRKNSt7__cxx1112basic_stringIcSt11char_traitsIcESaIcEEEEEclINS_17__normal_iteratorIPS8_St6vectorIS7_SaIS7_EEEEEEbT_, @function
_ZN9__gnu_cxx5__ops10_Iter_predIPFbRKNSt7__cxx1112basic_stringIcSt11char_traitsIcESaIcEEEEEclINS_17__normal_iteratorIPS8_St6vectorIS7_SaIS7_EEEEEEbT_:
.LFB6865:
	.cfi_startproc
	pushq	%rbp
	.cfi_def_cfa_offset 16
	.cfi_offset 6, -16
	movq	%rsp, %rbp
	.cfi_def_cfa_register 6
	pushq	%rbx
	subq	$24, %rsp
	.cfi_offset 3, -24
	movq	%rdi, -24(%rbp)
	movq	%rsi, -32(%rbp)
	movq	-24(%rbp), %rax
	movq	(%rax), %rbx
	leaq	-32(%rbp), %rax
	movq	%rax, %rdi
	call	_ZNK9__gnu_cxx17__normal_iteratorIPKNSt7__cxx1112basic_stringIcSt11char_traitsIcESaIcEEESt6vectorIS6_SaIS6_EEEdeEv
	movq	%rax, %rdi
	call	*%rbx
	addq	$24, %rsp
	popq	%rbx
	popq	%rbp
	.cfi_def_cfa 7, 8
	ret
	.cfi_endproc
.LFE6865:
	.size	_ZN9__gnu_cxx5__ops10_Iter_predIPFbRKNSt7__cxx1112basic_stringIcSt11char_traitsIcESaIcEEEEEclINS_17__normal_iteratorIPS8_St6vectorIS7_SaIS7_EEEEEEbT_, .-_ZN9__gnu_cxx5__ops10_Iter_predIPFbRKNSt7__cxx1112basic_stringIcSt11char_traitsIcESaIcEEEEEclINS_17__normal_iteratorIPS8_St6vectorIS7_SaIS7_EEEEEEbT_
	.section	.text._ZNSaINSt7__cxx1112basic_stringIcSt11char_traitsIcESaIcEEEEC2ERKS5_,"axG",@progbits,_ZNSaINSt7__cxx1112basic_stringIcSt11char_traitsIcESaIcEEEEC5ERKS5_,comdat
	.align 2
	.weak	_ZNSaINSt7__cxx1112basic_stringIcSt11char_traitsIcESaIcEEEEC2ERKS5_
	.type	_ZNSaINSt7__cxx1112basic_stringIcSt11char_traitsIcESaIcEEEEC2ERKS5_, @function
_ZNSaINSt7__cxx1112basic_stringIcSt11char_traitsIcESaIcEEEEC2ERKS5_:
.LFB6894:
	.cfi_startproc
	pushq	%rbp
	.cfi_def_cfa_offset 16
	.cfi_offset 6, -16
	movq	%rsp, %rbp
	.cfi_def_cfa_register 6
	subq	$16, %rsp
	movq	%rdi, -8(%rbp)
	movq	%rsi, -16(%rbp)
	movq	-16(%rbp), %rdx
	movq	-8(%rbp), %rax
	movq	%rdx, %rsi
	movq	%rax, %rdi
	call	_ZN9__gnu_cxx13new_allocatorINSt7__cxx1112basic_stringIcSt11char_traitsIcESaIcEEEEC2ERKS7_
	nop
	leave
	.cfi_def_cfa 7, 8
	ret
	.cfi_endproc
.LFE6894:
	.size	_ZNSaINSt7__cxx1112basic_stringIcSt11char_traitsIcESaIcEEEEC2ERKS5_, .-_ZNSaINSt7__cxx1112basic_stringIcSt11char_traitsIcESaIcEEEEC2ERKS5_
	.weak	_ZNSaINSt7__cxx1112basic_stringIcSt11char_traitsIcESaIcEEEEC1ERKS5_
	.set	_ZNSaINSt7__cxx1112basic_stringIcSt11char_traitsIcESaIcEEEEC1ERKS5_,_ZNSaINSt7__cxx1112basic_stringIcSt11char_traitsIcESaIcEEEEC2ERKS5_
	.section	.text._ZNSt16allocator_traitsISaINSt7__cxx1112basic_stringIcSt11char_traitsIcESaIcEEEEE10deallocateERS6_PS5_m,"axG",@progbits,_ZNSt16allocator_traitsISaINSt7__cxx1112basic_stringIcSt11char_traitsIcESaIcEEEEE10deallocateERS6_PS5_m,comdat
	.weak	_ZNSt16allocator_traitsISaINSt7__cxx1112basic_stringIcSt11char_traitsIcESaIcEEEEE10deallocateERS6_PS5_m
	.type	_ZNSt16allocator_traitsISaINSt7__cxx1112basic_stringIcSt11char_traitsIcESaIcEEEEE10deallocateERS6_PS5_m, @function
_ZNSt16allocator_traitsISaINSt7__cxx1112basic_stringIcSt11char_traitsIcESaIcEEEEE10deallocateERS6_PS5_m:
.LFB6896:
	.cfi_startproc
	pushq	%rbp
	.cfi_def_cfa_offset 16
	.cfi_offset 6, -16
	movq	%rsp, %rbp
	.cfi_def_cfa_register 6
	subq	$32, %rsp
	movq	%rdi, -8(%rbp)
	movq	%rsi, -16(%rbp)
	movq	%rdx, -24(%rbp)
	movq	-24(%rbp), %rdx
	movq	-16(%rbp), %rcx
	movq	-8(%rbp), %rax
	movq	%rcx, %rsi
	movq	%rax, %rdi
	call	_ZN9__gnu_cxx13new_allocatorINSt7__cxx1112basic_stringIcSt11char_traitsIcESaIcEEEE10deallocateEPS6_m
	nop
	leave
	.cfi_def_cfa 7, 8
	ret
	.cfi_endproc
.LFE6896:
	.size	_ZNSt16allocator_traitsISaINSt7__cxx1112basic_stringIcSt11char_traitsIcESaIcEEEEE10deallocateERS6_PS5_m, .-_ZNSt16allocator_traitsISaINSt7__cxx1112basic_stringIcSt11char_traitsIcESaIcEEEEE10deallocateERS6_PS5_m
	.section	.text._ZSt19__iterator_categoryIPKNSt7__cxx1112basic_stringIcSt11char_traitsIcESaIcEEEENSt15iterator_traitsIT_E17iterator_categoryERKS9_,"axG",@progbits,_ZSt19__iterator_categoryIPKNSt7__cxx1112basic_stringIcSt11char_traitsIcESaIcEEEENSt15iterator_traitsIT_E17iterator_categoryERKS9_,comdat
	.weak	_ZSt19__iterator_categoryIPKNSt7__cxx1112basic_stringIcSt11char_traitsIcESaIcEEEENSt15iterator_traitsIT_E17iterator_categoryERKS9_
	.type	_ZSt19__iterator_categoryIPKNSt7__cxx1112basic_stringIcSt11char_traitsIcESaIcEEEENSt15iterator_traitsIT_E17iterator_categoryERKS9_, @function
_ZSt19__iterator_categoryIPKNSt7__cxx1112basic_stringIcSt11char_traitsIcESaIcEEEENSt15iterator_traitsIT_E17iterator_categoryERKS9_:
.LFB6897:
	.cfi_startproc
	pushq	%rbp
	.cfi_def_cfa_offset 16
	.cfi_offset 6, -16
	movq	%rsp, %rbp
	.cfi_def_cfa_register 6
	movq	%rdi, -8(%rbp)
	popq	%rbp
	.cfi_def_cfa 7, 8
	ret
	.cfi_endproc
.LFE6897:
	.size	_ZSt19__iterator_categoryIPKNSt7__cxx1112basic_stringIcSt11char_traitsIcESaIcEEEENSt15iterator_traitsIT_E17iterator_categoryERKS9_, .-_ZSt19__iterator_categoryIPKNSt7__cxx1112basic_stringIcSt11char_traitsIcESaIcEEEENSt15iterator_traitsIT_E17iterator_categoryERKS9_
	.section	.text._ZSt10__distanceIPKNSt7__cxx1112basic_stringIcSt11char_traitsIcESaIcEEEENSt15iterator_traitsIT_E15difference_typeES9_S9_St26random_access_iterator_tag,"axG",@progbits,_ZSt10__distanceIPKNSt7__cxx1112basic_stringIcSt11char_traitsIcESaIcEEEENSt15iterator_traitsIT_E15difference_typeES9_S9_St26random_access_iterator_tag,comdat
	.weak	_ZSt10__distanceIPKNSt7__cxx1112basic_stringIcSt11char_traitsIcESaIcEEEENSt15iterator_traitsIT_E15difference_typeES9_S9_St26random_access_iterator_tag
	.type	_ZSt10__distanceIPKNSt7__cxx1112basic_stringIcSt11char_traitsIcESaIcEEEENSt15iterator_traitsIT_E15difference_typeES9_S9_St26random_access_iterator_tag, @function
_ZSt10__distanceIPKNSt7__cxx1112basic_stringIcSt11char_traitsIcESaIcEEEENSt15iterator_traitsIT_E15difference_typeES9_S9_St26random_access_iterator_tag:
.LFB6898:
	.cfi_startproc
	pushq	%rbp
	.cfi_def_cfa_offset 16
	.cfi_offset 6, -16
	movq	%rsp, %rbp
	.cfi_def_cfa_register 6
	movq	%rdi, -8(%rbp)
	movq	%rsi, -16(%rbp)
	movq	-16(%rbp), %rdx
	movq	-8(%rbp), %rax
	subq	%rax, %rdx
	movq	%rdx, %rax
	sarq	$5, %rax
	popq	%rbp
	.cfi_def_cfa 7, 8
	ret
	.cfi_endproc
.LFE6898:
	.size	_ZSt10__distanceIPKNSt7__cxx1112basic_stringIcSt11char_traitsIcESaIcEEEENSt15iterator_traitsIT_E15difference_typeES9_S9_St26random_access_iterator_tag, .-_ZSt10__distanceIPKNSt7__cxx1112basic_stringIcSt11char_traitsIcESaIcEEEENSt15iterator_traitsIT_E15difference_typeES9_S9_St26random_access_iterator_tag
	.section	.text._ZNSt16allocator_traitsISaINSt7__cxx1112basic_stringIcSt11char_traitsIcESaIcEEEEE8allocateERS6_m,"axG",@progbits,_ZNSt16allocator_traitsISaINSt7__cxx1112basic_stringIcSt11char_traitsIcESaIcEEEEE8allocateERS6_m,comdat
	.weak	_ZNSt16allocator_traitsISaINSt7__cxx1112basic_stringIcSt11char_traitsIcESaIcEEEEE8allocateERS6_m
	.type	_ZNSt16allocator_traitsISaINSt7__cxx1112basic_stringIcSt11char_traitsIcESaIcEEEEE8allocateERS6_m, @function
_ZNSt16allocator_traitsISaINSt7__cxx1112basic_stringIcSt11char_traitsIcESaIcEEEEE8allocateERS6_m:
.LFB6899:
	.cfi_startproc
	pushq	%rbp
	.cfi_def_cfa_offset 16
	.cfi_offset 6, -16
	movq	%rsp, %rbp
	.cfi_def_cfa_register 6
	subq	$16, %rsp
	movq	%rdi, -8(%rbp)
	movq	%rsi, -16(%rbp)
	movq	-16(%rbp), %rcx
	movq	-8(%rbp), %rax
	movl	$0, %edx
	movq	%rcx, %rsi
	movq	%rax, %rdi
	call	_ZN9__gnu_cxx13new_allocatorINSt7__cxx1112basic_stringIcSt11char_traitsIcESaIcEEEE8allocateEmPKv
	leave
	.cfi_def_cfa 7, 8
	ret
	.cfi_endproc
.LFE6899:
	.size	_ZNSt16allocator_traitsISaINSt7__cxx1112basic_stringIcSt11char_traitsIcESaIcEEEEE8allocateERS6_m, .-_ZNSt16allocator_traitsISaINSt7__cxx1112basic_stringIcSt11char_traitsIcESaIcEEEEE8allocateERS6_m
	.section	.text._ZSt18uninitialized_copyIPKNSt7__cxx1112basic_stringIcSt11char_traitsIcESaIcEEEPS5_ET0_T_SA_S9_,"axG",@progbits,_ZSt18uninitialized_copyIPKNSt7__cxx1112basic_stringIcSt11char_traitsIcESaIcEEEPS5_ET0_T_SA_S9_,comdat
	.weak	_ZSt18uninitialized_copyIPKNSt7__cxx1112basic_stringIcSt11char_traitsIcESaIcEEEPS5_ET0_T_SA_S9_
	.type	_ZSt18uninitialized_copyIPKNSt7__cxx1112basic_stringIcSt11char_traitsIcESaIcEEEPS5_ET0_T_SA_S9_, @function
_ZSt18uninitialized_copyIPKNSt7__cxx1112basic_stringIcSt11char_traitsIcESaIcEEEPS5_ET0_T_SA_S9_:
.LFB6900:
	.cfi_startproc
	pushq	%rbp
	.cfi_def_cfa_offset 16
	.cfi_offset 6, -16
	movq	%rsp, %rbp
	.cfi_def_cfa_register 6
	subq	$48, %rsp
	movq	%rdi, -24(%rbp)
	movq	%rsi, -32(%rbp)
	movq	%rdx, -40(%rbp)
	movb	$1, -1(%rbp)
	movq	-40(%rbp), %rdx
	movq	-32(%rbp), %rcx
	movq	-24(%rbp), %rax
	movq	%rcx, %rsi
	movq	%rax, %rdi
	call	_ZNSt20__uninitialized_copyILb0EE13__uninit_copyIPKNSt7__cxx1112basic_stringIcSt11char_traitsIcESaIcEEEPS7_EET0_T_SC_SB_
	leave
	.cfi_def_cfa 7, 8
	ret
	.cfi_endproc
.LFE6900:
	.size	_ZSt18uninitialized_copyIPKNSt7__cxx1112basic_stringIcSt11char_traitsIcESaIcEEEPS5_ET0_T_SA_S9_, .-_ZSt18uninitialized_copyIPKNSt7__cxx1112basic_stringIcSt11char_traitsIcESaIcEEEPS5_ET0_T_SA_S9_
	.section	.text._ZNSt12_Destroy_auxILb0EE9__destroyIPNSt7__cxx1112basic_stringIcSt11char_traitsIcESaIcEEEEEvT_S9_,"axG",@progbits,_ZNSt12_Destroy_auxILb0EE9__destroyIPNSt7__cxx1112basic_stringIcSt11char_traitsIcESaIcEEEEEvT_S9_,comdat
	.weak	_ZNSt12_Destroy_auxILb0EE9__destroyIPNSt7__cxx1112basic_stringIcSt11char_traitsIcESaIcEEEEEvT_S9_
	.type	_ZNSt12_Destroy_auxILb0EE9__destroyIPNSt7__cxx1112basic_stringIcSt11char_traitsIcESaIcEEEEEvT_S9_, @function
_ZNSt12_Destroy_auxILb0EE9__destroyIPNSt7__cxx1112basic_stringIcSt11char_traitsIcESaIcEEEEEvT_S9_:
.LFB6901:
	.cfi_startproc
	pushq	%rbp
	.cfi_def_cfa_offset 16
	.cfi_offset 6, -16
	movq	%rsp, %rbp
	.cfi_def_cfa_register 6
	subq	$16, %rsp
	movq	%rdi, -8(%rbp)
	movq	%rsi, -16(%rbp)
.L101:
	movq	-8(%rbp), %rax
	cmpq	-16(%rbp), %rax
	je	.L102
	movq	-8(%rbp), %rax
	movq	%rax, %rdi
	call	_ZSt11__addressofINSt7__cxx1112basic_stringIcSt11char_traitsIcESaIcEEEEPT_RS6_
	movq	%rax, %rdi
	call	_ZSt8_DestroyINSt7__cxx1112basic_stringIcSt11char_traitsIcESaIcEEEEvPT_
	addq	$32, -8(%rbp)
	jmp	.L101
.L102:
	nop
	leave
	.cfi_def_cfa 7, 8
	ret
	.cfi_endproc
.LFE6901:
	.size	_ZNSt12_Destroy_auxILb0EE9__destroyIPNSt7__cxx1112basic_stringIcSt11char_traitsIcESaIcEEEEEvT_S9_, .-_ZNSt12_Destroy_auxILb0EE9__destroyIPNSt7__cxx1112basic_stringIcSt11char_traitsIcESaIcEEEEEvT_S9_
	.section	.text._ZNK9__gnu_cxx17__normal_iteratorIPKNSt7__cxx1112basic_stringIcSt11char_traitsIcESaIcEEESt6vectorIS6_SaIS6_EEE4baseEv,"axG",@progbits,_ZNK9__gnu_cxx17__normal_iteratorIPKNSt7__cxx1112basic_stringIcSt11char_traitsIcESaIcEEESt6vectorIS6_SaIS6_EEE4baseEv,comdat
	.align 2
	.weak	_ZNK9__gnu_cxx17__normal_iteratorIPKNSt7__cxx1112basic_stringIcSt11char_traitsIcESaIcEEESt6vectorIS6_SaIS6_EEE4baseEv
	.type	_ZNK9__gnu_cxx17__normal_iteratorIPKNSt7__cxx1112basic_stringIcSt11char_traitsIcESaIcEEESt6vectorIS6_SaIS6_EEE4baseEv, @function
_ZNK9__gnu_cxx17__normal_iteratorIPKNSt7__cxx1112basic_stringIcSt11char_traitsIcESaIcEEESt6vectorIS6_SaIS6_EEE4baseEv:
.LFB6902:
	.cfi_startproc
	pushq	%rbp
	.cfi_def_cfa_offset 16
	.cfi_offset 6, -16
	movq	%rsp, %rbp
	.cfi_def_cfa_register 6
	movq	%rdi, -8(%rbp)
	movq	-8(%rbp), %rax
	popq	%rbp
	.cfi_def_cfa 7, 8
	ret
	.cfi_endproc
.LFE6902:
	.size	_ZNK9__gnu_cxx17__normal_iteratorIPKNSt7__cxx1112basic_stringIcSt11char_traitsIcESaIcEEESt6vectorIS6_SaIS6_EEE4baseEv, .-_ZNK9__gnu_cxx17__normal_iteratorIPKNSt7__cxx1112basic_stringIcSt11char_traitsIcESaIcEEESt6vectorIS6_SaIS6_EEE4baseEv
	.section	.text._ZNK9__gnu_cxx17__normal_iteratorIPKNSt7__cxx1112basic_stringIcSt11char_traitsIcESaIcEEESt6vectorIS6_SaIS6_EEEdeEv,"axG",@progbits,_ZNK9__gnu_cxx17__normal_iteratorIPKNSt7__cxx1112basic_stringIcSt11char_traitsIcESaIcEEESt6vectorIS6_SaIS6_EEEdeEv,comdat
	.align 2
	.weak	_ZNK9__gnu_cxx17__normal_iteratorIPKNSt7__cxx1112basic_stringIcSt11char_traitsIcESaIcEEESt6vectorIS6_SaIS6_EEEdeEv
	.type	_ZNK9__gnu_cxx17__normal_iteratorIPKNSt7__cxx1112basic_stringIcSt11char_traitsIcESaIcEEESt6vectorIS6_SaIS6_EEEdeEv, @function
_ZNK9__gnu_cxx17__normal_iteratorIPKNSt7__cxx1112basic_stringIcSt11char_traitsIcESaIcEEESt6vectorIS6_SaIS6_EEEdeEv:
.LFB6903:
	.cfi_startproc
	pushq	%rbp
	.cfi_def_cfa_offset 16
	.cfi_offset 6, -16
	movq	%rsp, %rbp
	.cfi_def_cfa_register 6
	movq	%rdi, -8(%rbp)
	movq	-8(%rbp), %rax
	movq	(%rax), %rax
	popq	%rbp
	.cfi_def_cfa 7, 8
	ret
	.cfi_endproc
.LFE6903:
	.size	_ZNK9__gnu_cxx17__normal_iteratorIPKNSt7__cxx1112basic_stringIcSt11char_traitsIcESaIcEEESt6vectorIS6_SaIS6_EEEdeEv, .-_ZNK9__gnu_cxx17__normal_iteratorIPKNSt7__cxx1112basic_stringIcSt11char_traitsIcESaIcEEESt6vectorIS6_SaIS6_EEEdeEv
	.section	.text._ZN9__gnu_cxx13new_allocatorINSt7__cxx1112basic_stringIcSt11char_traitsIcESaIcEEEEC2ERKS7_,"axG",@progbits,_ZN9__gnu_cxx13new_allocatorINSt7__cxx1112basic_stringIcSt11char_traitsIcESaIcEEEEC5ERKS7_,comdat
	.align 2
	.weak	_ZN9__gnu_cxx13new_allocatorINSt7__cxx1112basic_stringIcSt11char_traitsIcESaIcEEEEC2ERKS7_
	.type	_ZN9__gnu_cxx13new_allocatorINSt7__cxx1112basic_stringIcSt11char_traitsIcESaIcEEEEC2ERKS7_, @function
_ZN9__gnu_cxx13new_allocatorINSt7__cxx1112basic_stringIcSt11char_traitsIcESaIcEEEEC2ERKS7_:
.LFB6921:
	.cfi_startproc
	pushq	%rbp
	.cfi_def_cfa_offset 16
	.cfi_offset 6, -16
	movq	%rsp, %rbp
	.cfi_def_cfa_register 6
	movq	%rdi, -8(%rbp)
	movq	%rsi, -16(%rbp)
	nop
	popq	%rbp
	.cfi_def_cfa 7, 8
	ret
	.cfi_endproc
.LFE6921:
	.size	_ZN9__gnu_cxx13new_allocatorINSt7__cxx1112basic_stringIcSt11char_traitsIcESaIcEEEEC2ERKS7_, .-_ZN9__gnu_cxx13new_allocatorINSt7__cxx1112basic_stringIcSt11char_traitsIcESaIcEEEEC2ERKS7_
	.weak	_ZN9__gnu_cxx13new_allocatorINSt7__cxx1112basic_stringIcSt11char_traitsIcESaIcEEEEC1ERKS7_
	.set	_ZN9__gnu_cxx13new_allocatorINSt7__cxx1112basic_stringIcSt11char_traitsIcESaIcEEEEC1ERKS7_,_ZN9__gnu_cxx13new_allocatorINSt7__cxx1112basic_stringIcSt11char_traitsIcESaIcEEEEC2ERKS7_
	.section	.text._ZN9__gnu_cxx13new_allocatorINSt7__cxx1112basic_stringIcSt11char_traitsIcESaIcEEEE10deallocateEPS6_m,"axG",@progbits,_ZN9__gnu_cxx13new_allocatorINSt7__cxx1112basic_stringIcSt11char_traitsIcESaIcEEEE10deallocateEPS6_m,comdat
	.align 2
	.weak	_ZN9__gnu_cxx13new_allocatorINSt7__cxx1112basic_stringIcSt11char_traitsIcESaIcEEEE10deallocateEPS6_m
	.type	_ZN9__gnu_cxx13new_allocatorINSt7__cxx1112basic_stringIcSt11char_traitsIcESaIcEEEE10deallocateEPS6_m, @function
_ZN9__gnu_cxx13new_allocatorINSt7__cxx1112basic_stringIcSt11char_traitsIcESaIcEEEE10deallocateEPS6_m:
.LFB6923:
	.cfi_startproc
	pushq	%rbp
	.cfi_def_cfa_offset 16
	.cfi_offset 6, -16
	movq	%rsp, %rbp
	.cfi_def_cfa_register 6
	subq	$32, %rsp
	movq	%rdi, -8(%rbp)
	movq	%rsi, -16(%rbp)
	movq	%rdx, -24(%rbp)
	movq	-16(%rbp), %rax
	movq	%rax, %rdi
	call	_ZdlPv
	nop
	leave
	.cfi_def_cfa 7, 8
	ret
	.cfi_endproc
.LFE6923:
	.size	_ZN9__gnu_cxx13new_allocatorINSt7__cxx1112basic_stringIcSt11char_traitsIcESaIcEEEE10deallocateEPS6_m, .-_ZN9__gnu_cxx13new_allocatorINSt7__cxx1112basic_stringIcSt11char_traitsIcESaIcEEEE10deallocateEPS6_m
	.section	.text._ZN9__gnu_cxx13new_allocatorINSt7__cxx1112basic_stringIcSt11char_traitsIcESaIcEEEE8allocateEmPKv,"axG",@progbits,_ZN9__gnu_cxx13new_allocatorINSt7__cxx1112basic_stringIcSt11char_traitsIcESaIcEEEE8allocateEmPKv,comdat
	.align 2
	.weak	_ZN9__gnu_cxx13new_allocatorINSt7__cxx1112basic_stringIcSt11char_traitsIcESaIcEEEE8allocateEmPKv
	.type	_ZN9__gnu_cxx13new_allocatorINSt7__cxx1112basic_stringIcSt11char_traitsIcESaIcEEEE8allocateEmPKv, @function
_ZN9__gnu_cxx13new_allocatorINSt7__cxx1112basic_stringIcSt11char_traitsIcESaIcEEEE8allocateEmPKv:
.LFB6924:
	.cfi_startproc
	pushq	%rbp
	.cfi_def_cfa_offset 16
	.cfi_offset 6, -16
	movq	%rsp, %rbp
	.cfi_def_cfa_register 6
	subq	$32, %rsp
	movq	%rdi, -8(%rbp)
	movq	%rsi, -16(%rbp)
	movq	%rdx, -24(%rbp)
	movq	-8(%rbp), %rax
	movq	%rax, %rdi
	call	_ZNK9__gnu_cxx13new_allocatorINSt7__cxx1112basic_stringIcSt11char_traitsIcESaIcEEEE8max_sizeEv
	cmpq	-16(%rbp), %rax
	setb	%al
	testb	%al, %al
	je	.L110
	call	_ZSt17__throw_bad_allocv
.L110:
	movq	-16(%rbp), %rax
	salq	$5, %rax
	movq	%rax, %rdi
	call	_Znwm
	leave
	.cfi_def_cfa 7, 8
	ret
	.cfi_endproc
.LFE6924:
	.size	_ZN9__gnu_cxx13new_allocatorINSt7__cxx1112basic_stringIcSt11char_traitsIcESaIcEEEE8allocateEmPKv, .-_ZN9__gnu_cxx13new_allocatorINSt7__cxx1112basic_stringIcSt11char_traitsIcESaIcEEEE8allocateEmPKv
	.section	.text._ZNSt20__uninitialized_copyILb0EE13__uninit_copyIPKNSt7__cxx1112basic_stringIcSt11char_traitsIcESaIcEEEPS7_EET0_T_SC_SB_,"axG",@progbits,_ZNSt20__uninitialized_copyILb0EE13__uninit_copyIPKNSt7__cxx1112basic_stringIcSt11char_traitsIcESaIcEEEPS7_EET0_T_SC_SB_,comdat
	.weak	_ZNSt20__uninitialized_copyILb0EE13__uninit_copyIPKNSt7__cxx1112basic_stringIcSt11char_traitsIcESaIcEEEPS7_EET0_T_SC_SB_
	.type	_ZNSt20__uninitialized_copyILb0EE13__uninit_copyIPKNSt7__cxx1112basic_stringIcSt11char_traitsIcESaIcEEEPS7_EET0_T_SC_SB_, @function
_ZNSt20__uninitialized_copyILb0EE13__uninit_copyIPKNSt7__cxx1112basic_stringIcSt11char_traitsIcESaIcEEEPS7_EET0_T_SC_SB_:
.LFB6925:
	.cfi_startproc
	.cfi_personality 0x3,__gxx_personality_v0
	.cfi_lsda 0x3,.LLSDA6925
	pushq	%rbp
	.cfi_def_cfa_offset 16
	.cfi_offset 6, -16
	movq	%rsp, %rbp
	.cfi_def_cfa_register 6
	pushq	%rbx
	subq	$56, %rsp
	.cfi_offset 3, -24
	movq	%rdi, -40(%rbp)
	movq	%rsi, -48(%rbp)
	movq	%rdx, -56(%rbp)
	movq	-56(%rbp), %rax
	movq	%rax, -24(%rbp)
.L114:
	movq	-40(%rbp), %rax
	cmpq	-48(%rbp), %rax
	je	.L113
	movq	-24(%rbp), %rax
	movq	%rax, %rdi
	call	_ZSt11__addressofINSt7__cxx1112basic_stringIcSt11char_traitsIcESaIcEEEEPT_RS6_
	movq	%rax, %rdx
	movq	-40(%rbp), %rax
	movq	%rax, %rsi
	movq	%rdx, %rdi
.LEHB10:
	call	_ZSt10_ConstructINSt7__cxx1112basic_stringIcSt11char_traitsIcESaIcEEEJRKS5_EEvPT_DpOT0_
.LEHE10:
	addq	$32, -40(%rbp)
	addq	$32, -24(%rbp)
	jmp	.L114
.L113:
	movq	-24(%rbp), %rax
	jmp	.L120
.L118:
	movq	%rax, %rdi
	call	__cxa_begin_catch
	movq	-24(%rbp), %rdx
	movq	-56(%rbp), %rax
	movq	%rdx, %rsi
	movq	%rax, %rdi
.LEHB11:
	call	_ZSt8_DestroyIPNSt7__cxx1112basic_stringIcSt11char_traitsIcESaIcEEEEvT_S7_
	call	__cxa_rethrow
.LEHE11:
.L119:
	movq	%rax, %rbx
	call	__cxa_end_catch
	movq	%rbx, %rax
	movq	%rax, %rdi
.LEHB12:
	call	_Unwind_Resume
.LEHE12:
.L120:
	addq	$56, %rsp
	popq	%rbx
	popq	%rbp
	.cfi_def_cfa 7, 8
	ret
	.cfi_endproc
.LFE6925:
	.section	.gcc_except_table
	.align 4
.LLSDA6925:
	.byte	0xff
	.byte	0x3
	.uleb128 .LLSDATT6925-.LLSDATTD6925
.LLSDATTD6925:
	.byte	0x1
	.uleb128 .LLSDACSE6925-.LLSDACSB6925
.LLSDACSB6925:
	.uleb128 .LEHB10-.LFB6925
	.uleb128 .LEHE10-.LEHB10
	.uleb128 .L118-.LFB6925
	.uleb128 0x1
	.uleb128 .LEHB11-.LFB6925
	.uleb128 .LEHE11-.LEHB11
	.uleb128 .L119-.LFB6925
	.uleb128 0
	.uleb128 .LEHB12-.LFB6925
	.uleb128 .LEHE12-.LEHB12
	.uleb128 0
	.uleb128 0
.LLSDACSE6925:
	.byte	0x1
	.byte	0
	.align 4
	.long	0

.LLSDATT6925:
	.section	.text._ZNSt20__uninitialized_copyILb0EE13__uninit_copyIPKNSt7__cxx1112basic_stringIcSt11char_traitsIcESaIcEEEPS7_EET0_T_SC_SB_,"axG",@progbits,_ZNSt20__uninitialized_copyILb0EE13__uninit_copyIPKNSt7__cxx1112basic_stringIcSt11char_traitsIcESaIcEEEPS7_EET0_T_SC_SB_,comdat
	.size	_ZNSt20__uninitialized_copyILb0EE13__uninit_copyIPKNSt7__cxx1112basic_stringIcSt11char_traitsIcESaIcEEEPS7_EET0_T_SC_SB_, .-_ZNSt20__uninitialized_copyILb0EE13__uninit_copyIPKNSt7__cxx1112basic_stringIcSt11char_traitsIcESaIcEEEPS7_EET0_T_SC_SB_
	.section	.text._ZSt11__addressofINSt7__cxx1112basic_stringIcSt11char_traitsIcESaIcEEEEPT_RS6_,"axG",@progbits,_ZSt11__addressofINSt7__cxx1112basic_stringIcSt11char_traitsIcESaIcEEEEPT_RS6_,comdat
	.weak	_ZSt11__addressofINSt7__cxx1112basic_stringIcSt11char_traitsIcESaIcEEEEPT_RS6_
	.type	_ZSt11__addressofINSt7__cxx1112basic_stringIcSt11char_traitsIcESaIcEEEEPT_RS6_, @function
_ZSt11__addressofINSt7__cxx1112basic_stringIcSt11char_traitsIcESaIcEEEEPT_RS6_:
.LFB6926:
	.cfi_startproc
	pushq	%rbp
	.cfi_def_cfa_offset 16
	.cfi_offset 6, -16
	movq	%rsp, %rbp
	.cfi_def_cfa_register 6
	movq	%rdi, -8(%rbp)
	movq	-8(%rbp), %rax
	popq	%rbp
	.cfi_def_cfa 7, 8
	ret
	.cfi_endproc
.LFE6926:
	.size	_ZSt11__addressofINSt7__cxx1112basic_stringIcSt11char_traitsIcESaIcEEEEPT_RS6_, .-_ZSt11__addressofINSt7__cxx1112basic_stringIcSt11char_traitsIcESaIcEEEEPT_RS6_
	.section	.text._ZSt8_DestroyINSt7__cxx1112basic_stringIcSt11char_traitsIcESaIcEEEEvPT_,"axG",@progbits,_ZSt8_DestroyINSt7__cxx1112basic_stringIcSt11char_traitsIcESaIcEEEEvPT_,comdat
	.weak	_ZSt8_DestroyINSt7__cxx1112basic_stringIcSt11char_traitsIcESaIcEEEEvPT_
	.type	_ZSt8_DestroyINSt7__cxx1112basic_stringIcSt11char_traitsIcESaIcEEEEvPT_, @function
_ZSt8_DestroyINSt7__cxx1112basic_stringIcSt11char_traitsIcESaIcEEEEvPT_:
.LFB6927:
	.cfi_startproc
	pushq	%rbp
	.cfi_def_cfa_offset 16
	.cfi_offset 6, -16
	movq	%rsp, %rbp
	.cfi_def_cfa_register 6
	subq	$16, %rsp
	movq	%rdi, -8(%rbp)
	movq	-8(%rbp), %rax
	movq	%rax, %rdi
	call	_ZNSt7__cxx1112basic_stringIcSt11char_traitsIcESaIcEED1Ev
	nop
	leave
	.cfi_def_cfa 7, 8
	ret
	.cfi_endproc
.LFE6927:
	.size	_ZSt8_DestroyINSt7__cxx1112basic_stringIcSt11char_traitsIcESaIcEEEEvPT_, .-_ZSt8_DestroyINSt7__cxx1112basic_stringIcSt11char_traitsIcESaIcEEEEvPT_
	.section	.text._ZNK9__gnu_cxx13new_allocatorINSt7__cxx1112basic_stringIcSt11char_traitsIcESaIcEEEE8max_sizeEv,"axG",@progbits,_ZNK9__gnu_cxx13new_allocatorINSt7__cxx1112basic_stringIcSt11char_traitsIcESaIcEEEE8max_sizeEv,comdat
	.align 2
	.weak	_ZNK9__gnu_cxx13new_allocatorINSt7__cxx1112basic_stringIcSt11char_traitsIcESaIcEEEE8max_sizeEv
	.type	_ZNK9__gnu_cxx13new_allocatorINSt7__cxx1112basic_stringIcSt11char_traitsIcESaIcEEEE8max_sizeEv, @function
_ZNK9__gnu_cxx13new_allocatorINSt7__cxx1112basic_stringIcSt11char_traitsIcESaIcEEEE8max_sizeEv:
.LFB6940:
	.cfi_startproc
	pushq	%rbp
	.cfi_def_cfa_offset 16
	.cfi_offset 6, -16
	movq	%rsp, %rbp
	.cfi_def_cfa_register 6
	movq	%rdi, -8(%rbp)
	movabsq	$576460752303423487, %rax
	popq	%rbp
	.cfi_def_cfa 7, 8
	ret
	.cfi_endproc
.LFE6940:
	.size	_ZNK9__gnu_cxx13new_allocatorINSt7__cxx1112basic_stringIcSt11char_traitsIcESaIcEEEE8max_sizeEv, .-_ZNK9__gnu_cxx13new_allocatorINSt7__cxx1112basic_stringIcSt11char_traitsIcESaIcEEEE8max_sizeEv
	.section	.text._ZSt7forwardIRKNSt7__cxx1112basic_stringIcSt11char_traitsIcESaIcEEEEOT_RNSt16remove_referenceIS8_E4typeE,"axG",@progbits,_ZSt7forwardIRKNSt7__cxx1112basic_stringIcSt11char_traitsIcESaIcEEEEOT_RNSt16remove_referenceIS8_E4typeE,comdat
	.weak	_ZSt7forwardIRKNSt7__cxx1112basic_stringIcSt11char_traitsIcESaIcEEEEOT_RNSt16remove_referenceIS8_E4typeE
	.type	_ZSt7forwardIRKNSt7__cxx1112basic_stringIcSt11char_traitsIcESaIcEEEEOT_RNSt16remove_referenceIS8_E4typeE, @function
_ZSt7forwardIRKNSt7__cxx1112basic_stringIcSt11char_traitsIcESaIcEEEEOT_RNSt16remove_referenceIS8_E4typeE:
.LFB6942:
	.cfi_startproc
	pushq	%rbp
	.cfi_def_cfa_offset 16
	.cfi_offset 6, -16
	movq	%rsp, %rbp
	.cfi_def_cfa_register 6
	movq	%rdi, -8(%rbp)
	movq	-8(%rbp), %rax
	popq	%rbp
	.cfi_def_cfa 7, 8
	ret
	.cfi_endproc
.LFE6942:
	.size	_ZSt7forwardIRKNSt7__cxx1112basic_stringIcSt11char_traitsIcESaIcEEEEOT_RNSt16remove_referenceIS8_E4typeE, .-_ZSt7forwardIRKNSt7__cxx1112basic_stringIcSt11char_traitsIcESaIcEEEEOT_RNSt16remove_referenceIS8_E4typeE
	.section	.text._ZSt10_ConstructINSt7__cxx1112basic_stringIcSt11char_traitsIcESaIcEEEJRKS5_EEvPT_DpOT0_,"axG",@progbits,_ZSt10_ConstructINSt7__cxx1112basic_stringIcSt11char_traitsIcESaIcEEEJRKS5_EEvPT_DpOT0_,comdat
	.weak	_ZSt10_ConstructINSt7__cxx1112basic_stringIcSt11char_traitsIcESaIcEEEJRKS5_EEvPT_DpOT0_
	.type	_ZSt10_ConstructINSt7__cxx1112basic_stringIcSt11char_traitsIcESaIcEEEJRKS5_EEvPT_DpOT0_, @function
_ZSt10_ConstructINSt7__cxx1112basic_stringIcSt11char_traitsIcESaIcEEEJRKS5_EEvPT_DpOT0_:
.LFB6941:
	.cfi_startproc
	.cfi_personality 0x3,__gxx_personality_v0
	.cfi_lsda 0x3,.LLSDA6941
	pushq	%rbp
	.cfi_def_cfa_offset 16
	.cfi_offset 6, -16
	movq	%rsp, %rbp
	.cfi_def_cfa_register 6
	pushq	%r13
	pushq	%r12
	pushq	%rbx
	subq	$24, %rsp
	.cfi_offset 13, -24
	.cfi_offset 12, -32
	.cfi_offset 3, -40
	movq	%rdi, -40(%rbp)
	movq	%rsi, -48(%rbp)
	movq	-48(%rbp), %rax
	movq	%rax, %rdi
	call	_ZSt7forwardIRKNSt7__cxx1112basic_stringIcSt11char_traitsIcESaIcEEEEOT_RNSt16remove_referenceIS8_E4typeE
	movq	%rax, %r13
	movq	-40(%rbp), %r12
	movq	%r12, %rsi
	movl	$32, %edi
	call	_ZnwmPv
	movq	%rax, %rbx
	testq	%rbx, %rbx
	je	.L133
	movq	%r13, %rsi
	movq	%rbx, %rdi
.LEHB13:
	call	_ZNSt7__cxx1112basic_stringIcSt11char_traitsIcESaIcEEC1ERKS4_
.LEHE13:
	jmp	.L133
.L132:
	movq	%rax, %r13
	movq	%r12, %rsi
	movq	%rbx, %rdi
	call	_ZdlPvS_
	movq	%r13, %rax
	movq	%rax, %rdi
.LEHB14:
	call	_Unwind_Resume
.LEHE14:
.L133:
	nop
	addq	$24, %rsp
	popq	%rbx
	popq	%r12
	popq	%r13
	popq	%rbp
	.cfi_def_cfa 7, 8
	ret
	.cfi_endproc
.LFE6941:
	.section	.gcc_except_table
.LLSDA6941:
	.byte	0xff
	.byte	0xff
	.byte	0x1
	.uleb128 .LLSDACSE6941-.LLSDACSB6941
.LLSDACSB6941:
	.uleb128 .LEHB13-.LFB6941
	.uleb128 .LEHE13-.LEHB13
	.uleb128 .L132-.LFB6941
	.uleb128 0
	.uleb128 .LEHB14-.LFB6941
	.uleb128 .LEHE14-.LEHB14
	.uleb128 0
	.uleb128 0
.LLSDACSE6941:
	.section	.text._ZSt10_ConstructINSt7__cxx1112basic_stringIcSt11char_traitsIcESaIcEEEJRKS5_EEvPT_DpOT0_,"axG",@progbits,_ZSt10_ConstructINSt7__cxx1112basic_stringIcSt11char_traitsIcESaIcEEEJRKS5_EEvPT_DpOT0_,comdat
	.size	_ZSt10_ConstructINSt7__cxx1112basic_stringIcSt11char_traitsIcESaIcEEEJRKS5_EEvPT_DpOT0_, .-_ZSt10_ConstructINSt7__cxx1112basic_stringIcSt11char_traitsIcESaIcEEEJRKS5_EEvPT_DpOT0_
	.weak	_ZSt10_ConstructINSt7__cxx1112basic_stringIcSt11char_traitsIcESaIcEEEIRKS5_EEvPT_DpOT0_
	.set	_ZSt10_ConstructINSt7__cxx1112basic_stringIcSt11char_traitsIcESaIcEEEIRKS5_EEvPT_DpOT0_,_ZSt10_ConstructINSt7__cxx1112basic_stringIcSt11char_traitsIcESaIcEEEJRKS5_EEvPT_DpOT0_
	.text
	.type	_Z41__static_initialization_and_destruction_0ii, @function
_Z41__static_initialization_and_destruction_0ii:
.LFB6948:
	.cfi_startproc
	pushq	%rbp
	.cfi_def_cfa_offset 16
	.cfi_offset 6, -16
	movq	%rsp, %rbp
	.cfi_def_cfa_register 6
	subq	$16, %rsp
	movl	%edi, -4(%rbp)
	movl	%esi, -8(%rbp)
	cmpl	$1, -4(%rbp)
	jne	.L136
	cmpl	$65535, -8(%rbp)
	jne	.L136
	movl	$_ZStL8__ioinit, %edi
	call	_ZNSt8ios_base4InitC1Ev
	movl	$__dso_handle, %edx
	movl	$_ZStL8__ioinit, %esi
	movl	$_ZNSt8ios_base4InitD1Ev, %edi
	call	__cxa_atexit
.L136:
	nop
	leave
	.cfi_def_cfa 7, 8
	ret
	.cfi_endproc
.LFE6948:
	.size	_Z41__static_initialization_and_destruction_0ii, .-_Z41__static_initialization_and_destruction_0ii
	.type	_GLOBAL__sub_I__Z14smallerThanSixRKNSt7__cxx1112basic_stringIcSt11char_traitsIcESaIcEEE, @function
_GLOBAL__sub_I__Z14smallerThanSixRKNSt7__cxx1112basic_stringIcSt11char_traitsIcESaIcEEE:
.LFB6949:
	.cfi_startproc
	pushq	%rbp
	.cfi_def_cfa_offset 16
	.cfi_offset 6, -16
	movq	%rsp, %rbp
	.cfi_def_cfa_register 6
	movl	$65535, %esi
	movl	$1, %edi
	call	_Z41__static_initialization_and_destruction_0ii
	popq	%rbp
	.cfi_def_cfa 7, 8
	ret
	.cfi_endproc
.LFE6949:
	.size	_GLOBAL__sub_I__Z14smallerThanSixRKNSt7__cxx1112basic_stringIcSt11char_traitsIcESaIcEEE, .-_GLOBAL__sub_I__Z14smallerThanSixRKNSt7__cxx1112basic_stringIcSt11char_traitsIcESaIcEEE
	.section	.init_array,"aw"
	.align 8
	.quad	_GLOBAL__sub_I__Z14smallerThanSixRKNSt7__cxx1112basic_stringIcSt11char_traitsIcESaIcEEE
	.hidden	__dso_handle
	.ident	"GCC: (Ubuntu 5.4.0-6ubuntu1~16.04.4) 5.4.0 20160609"
	.section	.note.GNU-stack,"",@progbits
